Archive member included because of file (symbol)

contiki-OrisenStamp.a(rimeaddr.o)
                              syncSensor.co (rimeaddr_copy)
contiki-OrisenStamp.a(rime.o)
                              obj_OrisenStamp/contiki-stamp-main.o (rime_driver)
contiki-OrisenStamp.a(rimestats.o)
                              contiki-OrisenStamp.a(rime.o) (rimestats)
contiki-OrisenStamp.a(announcement.o)
                              contiki-OrisenStamp.a(rime.o) (announcement_init)
contiki-OrisenStamp.a(broadcast-annou)
                              contiki-OrisenStamp.a(rime.o) (broadcast_announcement_init)
contiki-OrisenStamp.a(broadcast.o)
                              contiki-OrisenStamp.a(broadcast-annou) (broadcast_send)
contiki-OrisenStamp.a(abc.o)  contiki-OrisenStamp.a(rime.o) (abc_input)
contiki-OrisenStamp.a(collect.o)
                              syncSensor.co (collect_parent)
contiki-OrisenStamp.a(collect-neighbo)
                              contiki-OrisenStamp.a(collect.o) (collect_neighbor_list)
contiki-OrisenStamp.a(collect-link-es)
                              contiki-OrisenStamp.a(collect-neighbo) (collect_link_estimate_new)
contiki-OrisenStamp.a(chameleon.o)
                              contiki-OrisenStamp.a(rime.o) (chameleon_parse)
contiki-OrisenStamp.a(channel.o)
                              contiki-OrisenStamp.a(abc.o) (channel_close)
contiki-OrisenStamp.a(chameleon-bitop)
                              contiki-OrisenStamp.a(chameleon.o) (chameleon_bitopt)
contiki-OrisenStamp.a(nullrdc.o)
                              obj_OrisenStamp/contiki-stamp-main.o (nullrdc_driver)
contiki-OrisenStamp.a(mac.o)  contiki-OrisenStamp.a(nullrdc.o) (mac_call_sent_callback)
contiki-OrisenStamp.a(framer-802154.o)
                              contiki-OrisenStamp.a(nullrdc.o) (framer_802154)
contiki-OrisenStamp.a(csma.o)
                              obj_OrisenStamp/contiki-stamp-main.o (csma_driver)
contiki-OrisenStamp.a(process.o)
                              obj_OrisenStamp/contiki-stamp-main.o (process_init)
contiki-OrisenStamp.a(autostart.o)
                              obj_OrisenStamp/contiki-stamp-main.o (autostart_start)
contiki-OrisenStamp.a(serial-line.o)
                              obj_OrisenStamp/contiki-stamp-main.o (serial_line_init)
contiki-OrisenStamp.a(memb.o)
                              contiki-OrisenStamp.a(collect-neighbo) (memb_alloc)
contiki-OrisenStamp.a(timer.o)
                              contiki-OrisenStamp.a(collect-neighbo) (timer_expired)
contiki-OrisenStamp.a(list.o)
                              contiki-OrisenStamp.a(announcement.o) (list_init)
contiki-OrisenStamp.a(etimer.o)
                              syncSensor.co (etimer_expired)
contiki-OrisenStamp.a(ctimer.o)
                              contiki-OrisenStamp.a(broadcast-annou) (ctimer_stop)
contiki-OrisenStamp.a(random.o)
                              contiki-OrisenStamp.a(broadcast-annou) (random_rand)
contiki-OrisenStamp.a(ringbuf.o)
                              contiki-OrisenStamp.a(serial-line.o) (ringbuf_init)
contiki-OrisenStamp.a(packetbuf.o)
                              contiki-OrisenStamp.a(collect.o) (packetbuf_hdrreduce)
contiki-OrisenStamp.a(queuebuf.o)
                              contiki-OrisenStamp.a(collect.o) (queuebuf_to_packetbuf)
contiki-OrisenStamp.a(packetqueue.o)
                              contiki-OrisenStamp.a(collect.o) (packetqueue_queuebuf)
contiki-OrisenStamp.a(clock.o)
                              obj_OrisenStamp/contiki-stamp-main.o (clock_init)
contiki-OrisenStamp.a(button-sensor.o)
                              syncSensor.co (button_sensor)
contiki-OrisenStamp.a(sensors.o)
                              contiki-OrisenStamp.a(button-sensor.o) (sensors_changed)
contiki-OrisenStamp.a(RTC.o)  obj_OrisenStamp/contiki-stamp-main.o (RTC_init)
contiki-OrisenStamp.a(kbi_events.o)
                              obj_OrisenStamp/contiki-stamp-main.o (kbi_event_process)
contiki-OrisenStamp.a(io-pins.o)
                              obj_OrisenStamp/contiki-stamp-main.o (ioPins_init)
contiki-OrisenStamp.a(contiki-crm.o)
                              obj_OrisenStamp/contiki-stamp-main.o (cal_ring_osc)
contiki-OrisenStamp.a(contiki-maca.o)
                              contiki-OrisenStamp.a(nullrdc.o) (contiki_maca_driver)
contiki-OrisenStamp.a(contiki-misc.o)
                              contiki-OrisenStamp.a(random.o) (srand)
contiki-OrisenStamp.a(leds.o)
                              syncSensor.co (leds_off)
contiki-OrisenStamp.a(contiki-uart.o)
                              obj_OrisenStamp/contiki-stamp-main.o (uart1_set_input)
contiki-OrisenStamp.a(dbg-printf.o)
                              syncSensor.co (printf)
contiki-OrisenStamp.a(dbg-sprintf.o)
                              syncSensor.co (sprintf)
contiki-OrisenStamp.a(strformat.o)
                              contiki-OrisenStamp.a(dbg-printf.o) (format_str_v)
contiki-OrisenStamp.a(adc.o)  contiki-OrisenStamp.a(io-pins.o) (adc_service)
contiki-OrisenStamp.a(gpio.o)
                              contiki-OrisenStamp.a(button-sensor.o) (gpio_data_get)
contiki-OrisenStamp.a(gpio-util.o)
                              contiki-OrisenStamp.a(adc.o) (gpio_select_function)
contiki-OrisenStamp.a(i2c.o)  contiki-OrisenStamp.a(RTC.o) (i2c_transferred)
contiki-OrisenStamp.a(maca.o)
                              contiki-OrisenStamp.a(contiki-maca.o) (free_packet)
contiki-OrisenStamp.a(nvm.o)  obj_OrisenStamp/contiki-stamp-main.o (nvm_detect)
contiki-OrisenStamp.a(uart1.o)
                              obj_OrisenStamp/contiki-stamp-main.o (uart1_getc)
contiki-OrisenStamp.a(uart2.o)
                              syncSensor.co (uart2_getc)
contiki-OrisenStamp.a(default_lowleve)
                              obj_OrisenStamp/contiki-stamp-main.o (default_vreg_init)
contiki-OrisenStamp.a(isr.o)  obj_OrisenStamp/start.o (irq)
contiki-OrisenStamp.a(unicast.o)
                              contiki-OrisenStamp.a(collect.o) (unicast_send)
contiki-OrisenStamp.a(frame802154.o)
                              contiki-OrisenStamp.a(framer-802154.o) (frame802154_parse)
contiki-OrisenStamp.a(debug-uart.o)
                              contiki-OrisenStamp.a(dbg-printf.o) (dbg_send_bytes)
contiki-OrisenStamp.a(leds-arch.o)
                              contiki-OrisenStamp.a(leds.o) (leds_arch_get)
/home/user/CodeSourcery/Sourcery_G++_Lite/bin/../lib/gcc/arm-none-eabi/4.3.2/libgcc.a(_udivsi3.o)
                              contiki-OrisenStamp.a(clock.o) (__aeabi_uidiv)
/home/user/CodeSourcery/Sourcery_G++_Lite/bin/../lib/gcc/arm-none-eabi/4.3.2/libgcc.a(_divsi3.o)
                              syncSensor.co (__aeabi_idiv)
/home/user/CodeSourcery/Sourcery_G++_Lite/bin/../lib/gcc/arm-none-eabi/4.3.2/libgcc.a(_dvmd_tls.o)
                              /home/user/CodeSourcery/Sourcery_G++_Lite/bin/../lib/gcc/arm-none-eabi/4.3.2/libgcc.a(_udivsi3.o) (__aeabi_idiv0)
/home/user/CodeSourcery/Sourcery_G++_Lite/bin/../lib/gcc/arm-none-eabi/4.3.2/libgcc.a(_aeabi_uldivmod.o)
                              contiki-OrisenStamp.a(strformat.o) (__aeabi_uldivmod)
/home/user/CodeSourcery/Sourcery_G++_Lite/bin/../lib/gcc/arm-none-eabi/4.3.2/libgcc.a(bpabi.o)
                              /home/user/CodeSourcery/Sourcery_G++_Lite/bin/../lib/gcc/arm-none-eabi/4.3.2/libgcc.a(_aeabi_uldivmod.o) (__gnu_uldivmod_helper)
/home/user/CodeSourcery/Sourcery_G++_Lite/bin/../lib/gcc/arm-none-eabi/4.3.2/libgcc.a(_divdi3.o)
                              /home/user/CodeSourcery/Sourcery_G++_Lite/bin/../lib/gcc/arm-none-eabi/4.3.2/libgcc.a(bpabi.o) (__divdi3)
/home/user/CodeSourcery/Sourcery_G++_Lite/bin/../lib/gcc/arm-none-eabi/4.3.2/libgcc.a(_udivdi3.o)
                              /home/user/CodeSourcery/Sourcery_G++_Lite/bin/../lib/gcc/arm-none-eabi/4.3.2/libgcc.a(bpabi.o) (__udivdi3)
/home/user/CodeSourcery/Sourcery_G++_Lite/bin/../lib/gcc/arm-none-eabi/4.3.2/libgcc.a(_clz.o)
                              /home/user/CodeSourcery/Sourcery_G++_Lite/bin/../lib/gcc/arm-none-eabi/4.3.2/libgcc.a(_divdi3.o) (__clz_tab)
/home/user/CodeSourcery/Sourcery_G++_Lite/bin/../lib/gcc/arm-none-eabi/4.3.2/../../../../arm-none-eabi/lib/libc.a(lib_a-malloc.o)
                              syncSensor.co (free)
/home/user/CodeSourcery/Sourcery_G++_Lite/bin/../lib/gcc/arm-none-eabi/4.3.2/../../../../arm-none-eabi/lib/libc.a(lib_a-mallocr.o)
                              /home/user/CodeSourcery/Sourcery_G++_Lite/bin/../lib/gcc/arm-none-eabi/4.3.2/../../../../arm-none-eabi/lib/libc.a(lib_a-malloc.o) (_malloc_r)
/home/user/CodeSourcery/Sourcery_G++_Lite/bin/../lib/gcc/arm-none-eabi/4.3.2/../../../../arm-none-eabi/lib/libc.a(lib_a-memcmp.o)
                              obj_OrisenStamp/contiki-stamp-main.o (memcmp)
/home/user/CodeSourcery/Sourcery_G++_Lite/bin/../lib/gcc/arm-none-eabi/4.3.2/../../../../arm-none-eabi/lib/libc.a(lib_a-memcpy.o)
                              syncSensor.co (memcpy)
/home/user/CodeSourcery/Sourcery_G++_Lite/bin/../lib/gcc/arm-none-eabi/4.3.2/../../../../arm-none-eabi/lib/libc.a(lib_a-memset.o)
                              contiki-OrisenStamp.a(chameleon-bitop) (memset)
/home/user/CodeSourcery/Sourcery_G++_Lite/bin/../lib/gcc/arm-none-eabi/4.3.2/../../../../arm-none-eabi/lib/libc.a(lib_a-mlock.o)
                              /home/user/CodeSourcery/Sourcery_G++_Lite/bin/../lib/gcc/arm-none-eabi/4.3.2/../../../../arm-none-eabi/lib/libc.a(lib_a-mallocr.o) (__malloc_lock)
/home/user/CodeSourcery/Sourcery_G++_Lite/bin/../lib/gcc/arm-none-eabi/4.3.2/../../../../arm-none-eabi/lib/libc.a(lib_a-sbrkr.o)
                              /home/user/CodeSourcery/Sourcery_G++_Lite/bin/../lib/gcc/arm-none-eabi/4.3.2/../../../../arm-none-eabi/lib/libc.a(lib_a-mallocr.o) (_sbrk_r)
/home/user/CodeSourcery/Sourcery_G++_Lite/bin/../lib/gcc/arm-none-eabi/4.3.2/../../../../arm-none-eabi/lib/libc.a(lib_a-strcat.o)
                              syncSensor.co (strcat)
/home/user/CodeSourcery/Sourcery_G++_Lite/bin/../lib/gcc/arm-none-eabi/4.3.2/../../../../arm-none-eabi/lib/libc.a(lib_a-strcpy.o)
                              /home/user/CodeSourcery/Sourcery_G++_Lite/bin/../lib/gcc/arm-none-eabi/4.3.2/../../../../arm-none-eabi/lib/libc.a(lib_a-strcat.o) (strcpy)
/home/user/CodeSourcery/Sourcery_G++_Lite/bin/../lib/gcc/arm-none-eabi/4.3.2/../../../../arm-none-eabi/lib/libc.a(lib_a-strlen.o)
                              syncSensor.co (strlen)
/home/user/CodeSourcery/Sourcery_G++_Lite/bin/../lib/gcc/arm-none-eabi/4.3.2/../../../../arm-none-eabi/lib/libc.a(lib_a-strncmp.o)
                              contiki-OrisenStamp.a(sensors.o) (strncmp)
/home/user/CodeSourcery/Sourcery_G++_Lite/bin/../lib/gcc/arm-none-eabi/4.3.2/../../../../arm-none-eabi/lib/libc.a(lib_a-freer.o)
                              /home/user/CodeSourcery/Sourcery_G++_Lite/bin/../lib/gcc/arm-none-eabi/4.3.2/../../../../arm-none-eabi/lib/libc.a(lib_a-malloc.o) (_free_r)
/home/user/CodeSourcery/Sourcery_G++_Lite/bin/../lib/gcc/arm-none-eabi/4.3.2/../../../../arm-none-eabi/lib/libc.a(lib_a-impure.o)
                              /home/user/CodeSourcery/Sourcery_G++_Lite/bin/../lib/gcc/arm-none-eabi/4.3.2/../../../../arm-none-eabi/lib/libc.a(lib_a-malloc.o) (_impure_ptr)
/home/user/CodeSourcery/Sourcery_G++_Lite/bin/../lib/gcc/arm-none-eabi/4.3.2/../../../../arm-none-eabi/lib/libc.a(lib_a-reent.o)
                              /home/user/CodeSourcery/Sourcery_G++_Lite/bin/../lib/gcc/arm-none-eabi/4.3.2/../../../../arm-none-eabi/lib/libc.a(lib_a-sbrkr.o) (errno)

Allocating common symbols
Common symbol       size              file

errno               0x4               /home/user/CodeSourcery/Sourcery_G++_Lite/bin/../lib/gcc/arm-none-eabi/4.3.2/../../../../arm-none-eabi/lib/libc.a(lib_a-reent.o)

Discarded input sections

 .text          0x00000000        0x0 syncSensor.co
 .data          0x00000000        0x0 syncSensor.co
 .bss           0x00000000        0x0 syncSensor.co
 .text          0x00000000        0x0 obj_OrisenStamp/contiki-stamp-main.o
 .data          0x00000000        0x0 obj_OrisenStamp/contiki-stamp-main.o
 .bss           0x00000000        0x0 obj_OrisenStamp/contiki-stamp-main.o
 .text.iab_to_eui64
                0x00000000        0x0 obj_OrisenStamp/contiki-stamp-main.o
 .text.oui_to_eui64
                0x00000000        0x0 obj_OrisenStamp/contiki-stamp-main.o
 .text.uip_log  0x00000000        0x0 obj_OrisenStamp/contiki-stamp-main.o
 .bss.count     0x00000000        0x0 obj_OrisenStamp/contiki-stamp-main.o
 .bss.timer_delay
                0x00000000        0x0 obj_OrisenStamp/contiki-stamp-main.o
 .text          0x00000000        0x0 obj_OrisenStamp/start.o
 .data          0x00000000        0x0 obj_OrisenStamp/start.o
 .bss           0x00000000        0x0 obj_OrisenStamp/start.o
 .text          0x00000000        0x0 contiki-OrisenStamp.a(rimeaddr.o)
 .data          0x00000000        0x0 contiki-OrisenStamp.a(rimeaddr.o)
 .bss           0x00000000        0x0 contiki-OrisenStamp.a(rimeaddr.o)
 .text          0x00000000        0x0 contiki-OrisenStamp.a(rime.o)
 .data          0x00000000        0x0 contiki-OrisenStamp.a(rime.o)
 .bss           0x00000000        0x0 contiki-OrisenStamp.a(rime.o)
 .text.rime_sniffer_remove
                0x00000000        0x0 contiki-OrisenStamp.a(rime.o)
 .text.rime_sniffer_add
                0x00000000        0x0 contiki-OrisenStamp.a(rime.o)
 .text          0x00000000        0x0 contiki-OrisenStamp.a(rimestats.o)
 .data          0x00000000        0x0 contiki-OrisenStamp.a(rimestats.o)
 .bss           0x00000000        0x0 contiki-OrisenStamp.a(rimestats.o)
 .text          0x00000000        0x0 contiki-OrisenStamp.a(announcement.o)
 .data          0x00000000        0x0 contiki-OrisenStamp.a(announcement.o)
 .bss           0x00000000        0x0 contiki-OrisenStamp.a(announcement.o)
 .text.announcement_remove_value
                0x00000000        0x0 contiki-OrisenStamp.a(announcement.o)
 .text.announcement_listen
                0x00000000        0x0 contiki-OrisenStamp.a(announcement.o)
 .text.announcement_register_listen_callback
                0x00000000        0x0 contiki-OrisenStamp.a(announcement.o)
 .text.announcement_remove
                0x00000000        0x0 contiki-OrisenStamp.a(announcement.o)
 .bss.listen_callback
                0x00000000        0x0 contiki-OrisenStamp.a(announcement.o)
 .text          0x00000000        0x0 contiki-OrisenStamp.a(broadcast-annou)
 .data          0x00000000        0x0 contiki-OrisenStamp.a(broadcast-annou)
 .bss           0x00000000        0x0 contiki-OrisenStamp.a(broadcast-annou)
 .text.broadcast_announcement_beacon_interval
                0x00000000        0x0 contiki-OrisenStamp.a(broadcast-annou)
 .text.broadcast_announcement_stop
                0x00000000        0x0 contiki-OrisenStamp.a(broadcast-annou)
 .text          0x00000000        0x0 contiki-OrisenStamp.a(broadcast.o)
 .data          0x00000000        0x0 contiki-OrisenStamp.a(broadcast.o)
 .bss           0x00000000        0x0 contiki-OrisenStamp.a(broadcast.o)
 .text.broadcast_close
                0x00000000        0x0 contiki-OrisenStamp.a(broadcast.o)
 .text          0x00000000        0x0 contiki-OrisenStamp.a(abc.o)
 .data          0x00000000        0x0 contiki-OrisenStamp.a(abc.o)
 .bss           0x00000000        0x0 contiki-OrisenStamp.a(abc.o)
 .text.abc_close
                0x00000000        0x0 contiki-OrisenStamp.a(abc.o)
 .text          0x00000000        0x0 contiki-OrisenStamp.a(collect.o)
 .data          0x00000000        0x0 contiki-OrisenStamp.a(collect.o)
 .bss           0x00000000        0x0 contiki-OrisenStamp.a(collect.o)
 .text.collect_depth
                0x00000000        0x0 contiki-OrisenStamp.a(collect.o)
 .text.collect_print_stats
                0x00000000        0x0 contiki-OrisenStamp.a(collect.o)
 .text.collect_purge
                0x00000000        0x0 contiki-OrisenStamp.a(collect.o)
 .text.collect_set_keepalive
                0x00000000        0x0 contiki-OrisenStamp.a(collect.o)
 .text.collect_set_sink
                0x00000000        0x0 contiki-OrisenStamp.a(collect.o)
 .text.collect_close
                0x00000000        0x0 contiki-OrisenStamp.a(collect.o)
 .text          0x00000000        0x0 contiki-OrisenStamp.a(collect-neighbo)
 .data          0x00000000        0x0 contiki-OrisenStamp.a(collect-neighbo)
 .bss           0x00000000        0x0 contiki-OrisenStamp.a(collect-neighbo)
 .text.collect_neighbor_is_congested
                0x00000000        0x0 contiki-OrisenStamp.a(collect-neighbo)
 .text.collect_neighbor_link_estimate
                0x00000000        0x0 contiki-OrisenStamp.a(collect-neighbo)
 .text.collect_neighbor_rx
                0x00000000        0x0 contiki-OrisenStamp.a(collect-neighbo)
 .text.collect_neighbor_list_purge
                0x00000000        0x0 contiki-OrisenStamp.a(collect-neighbo)
 .text.collect_neighbor_list_get
                0x00000000        0x0 contiki-OrisenStamp.a(collect-neighbo)
 .text.collect_neighbor_list_num
                0x00000000        0x0 contiki-OrisenStamp.a(collect-neighbo)
 .text.collect_neighbor_list_remove
                0x00000000        0x0 contiki-OrisenStamp.a(collect-neighbo)
 .text          0x00000000        0x0 contiki-OrisenStamp.a(collect-link-es)
 .data          0x00000000        0x0 contiki-OrisenStamp.a(collect-link-es)
 .bss           0x00000000        0x0 contiki-OrisenStamp.a(collect-link-es)
 .text.collect_link_estimate_update_rx
                0x00000000        0x0 contiki-OrisenStamp.a(collect-link-es)
 .text          0x00000000        0x0 contiki-OrisenStamp.a(chameleon.o)
 .data          0x00000000        0x0 contiki-OrisenStamp.a(chameleon.o)
 .bss           0x00000000        0x0 contiki-OrisenStamp.a(chameleon.o)
 .text          0x00000000        0x0 contiki-OrisenStamp.a(channel.o)
 .data          0x00000000        0x0 contiki-OrisenStamp.a(channel.o)
 .bss           0x00000000        0x0 contiki-OrisenStamp.a(channel.o)
 .text.channel_close
                0x00000000        0x0 contiki-OrisenStamp.a(channel.o)
 .text          0x00000000        0x0 contiki-OrisenStamp.a(chameleon-bitop)
 .data          0x00000000        0x0 contiki-OrisenStamp.a(chameleon-bitop)
 .bss           0x00000000        0x0 contiki-OrisenStamp.a(chameleon-bitop)
 .text          0x00000000        0x0 contiki-OrisenStamp.a(nullrdc.o)
 .data          0x00000000        0x0 contiki-OrisenStamp.a(nullrdc.o)
 .bss           0x00000000        0x0 contiki-OrisenStamp.a(nullrdc.o)
 .text          0x00000000        0x0 contiki-OrisenStamp.a(mac.o)
 .data          0x00000000        0x0 contiki-OrisenStamp.a(mac.o)
 .bss           0x00000000        0x0 contiki-OrisenStamp.a(mac.o)
 .text          0x00000000        0x0 contiki-OrisenStamp.a(framer-802154.o)
 .data          0x00000000        0x0 contiki-OrisenStamp.a(framer-802154.o)
 .bss           0x00000000        0x0 contiki-OrisenStamp.a(framer-802154.o)
 .text          0x00000000        0x0 contiki-OrisenStamp.a(csma.o)
 .data          0x00000000        0x0 contiki-OrisenStamp.a(csma.o)
 .bss           0x00000000        0x0 contiki-OrisenStamp.a(csma.o)
 .text          0x00000000        0x0 contiki-OrisenStamp.a(process.o)
 .data          0x00000000        0x0 contiki-OrisenStamp.a(process.o)
 .bss           0x00000000        0x0 contiki-OrisenStamp.a(process.o)
 .text.process_nevents
                0x00000000        0x0 contiki-OrisenStamp.a(process.o)
 .text          0x00000000        0x0 contiki-OrisenStamp.a(autostart.o)
 .data          0x00000000        0x0 contiki-OrisenStamp.a(autostart.o)
 .bss           0x00000000        0x0 contiki-OrisenStamp.a(autostart.o)
 .text.autostart_exit
                0x00000000        0x0 contiki-OrisenStamp.a(autostart.o)
 .text          0x00000000        0x0 contiki-OrisenStamp.a(serial-line.o)
 .data          0x00000000        0x0 contiki-OrisenStamp.a(serial-line.o)
 .bss           0x00000000        0x0 contiki-OrisenStamp.a(serial-line.o)
 .text          0x00000000        0x0 contiki-OrisenStamp.a(memb.o)
 .data          0x00000000        0x0 contiki-OrisenStamp.a(memb.o)
 .bss           0x00000000        0x0 contiki-OrisenStamp.a(memb.o)
 .text          0x00000000        0x0 contiki-OrisenStamp.a(timer.o)
 .data          0x00000000        0x0 contiki-OrisenStamp.a(timer.o)
 .bss           0x00000000        0x0 contiki-OrisenStamp.a(timer.o)
 .text.timer_reset
                0x00000000        0x0 contiki-OrisenStamp.a(timer.o)
 .text.timer_remaining
                0x00000000        0x0 contiki-OrisenStamp.a(timer.o)
 .text.timer_restart
                0x00000000        0x0 contiki-OrisenStamp.a(timer.o)
 .text          0x00000000        0x0 contiki-OrisenStamp.a(list.o)
 .data          0x00000000        0x0 contiki-OrisenStamp.a(list.o)
 .bss           0x00000000        0x0 contiki-OrisenStamp.a(list.o)
 .text.list_copy
                0x00000000        0x0 contiki-OrisenStamp.a(list.o)
 .text.list_chop
                0x00000000        0x0 contiki-OrisenStamp.a(list.o)
 .text.list_insert
                0x00000000        0x0 contiki-OrisenStamp.a(list.o)
 .text          0x00000000        0x0 contiki-OrisenStamp.a(etimer.o)
 .data          0x00000000        0x0 contiki-OrisenStamp.a(etimer.o)
 .bss           0x00000000        0x0 contiki-OrisenStamp.a(etimer.o)
 .text.etimer_expiration_time
                0x00000000        0x0 contiki-OrisenStamp.a(etimer.o)
 .text.etimer_start_time
                0x00000000        0x0 contiki-OrisenStamp.a(etimer.o)
 .text.etimer_adjust
                0x00000000        0x0 contiki-OrisenStamp.a(etimer.o)
 .text.etimer_restart
                0x00000000        0x0 contiki-OrisenStamp.a(etimer.o)
 .text.etimer_reset
                0x00000000        0x0 contiki-OrisenStamp.a(etimer.o)
 .text          0x00000000        0x0 contiki-OrisenStamp.a(ctimer.o)
 .data          0x00000000        0x0 contiki-OrisenStamp.a(ctimer.o)
 .bss           0x00000000        0x0 contiki-OrisenStamp.a(ctimer.o)
 .text.ctimer_expired
                0x00000000        0x0 contiki-OrisenStamp.a(ctimer.o)
 .text.ctimer_restart
                0x00000000        0x0 contiki-OrisenStamp.a(ctimer.o)
 .text.ctimer_reset
                0x00000000        0x0 contiki-OrisenStamp.a(ctimer.o)
 .text          0x00000000        0x0 contiki-OrisenStamp.a(random.o)
 .data          0x00000000        0x0 contiki-OrisenStamp.a(random.o)
 .bss           0x00000000        0x0 contiki-OrisenStamp.a(random.o)
 .text.random_init
                0x00000000        0x0 contiki-OrisenStamp.a(random.o)
 .text          0x00000000        0x0 contiki-OrisenStamp.a(ringbuf.o)
 .data          0x00000000        0x0 contiki-OrisenStamp.a(ringbuf.o)
 .bss           0x00000000        0x0 contiki-OrisenStamp.a(ringbuf.o)
 .text.ringbuf_size
                0x00000000        0x0 contiki-OrisenStamp.a(ringbuf.o)
 .text.ringbuf_elements
                0x00000000        0x0 contiki-OrisenStamp.a(ringbuf.o)
 .text          0x00000000        0x0 contiki-OrisenStamp.a(packetbuf.o)
 .data          0x00000000        0x0 contiki-OrisenStamp.a(packetbuf.o)
 .bss           0x00000000        0x0 contiki-OrisenStamp.a(packetbuf.o)
 .text.packetbuf_clear_hdr
                0x00000000        0x0 contiki-OrisenStamp.a(packetbuf.o)
 .text.packetbuf_hdr_remove
                0x00000000        0x0 contiki-OrisenStamp.a(packetbuf.o)
 .text.packetbuf_reference
                0x00000000        0x0 contiki-OrisenStamp.a(packetbuf.o)
 .text          0x00000000        0x0 contiki-OrisenStamp.a(queuebuf.o)
 .data          0x00000000        0x0 contiki-OrisenStamp.a(queuebuf.o)
 .bss           0x00000000        0x0 contiki-OrisenStamp.a(queuebuf.o)
 .text.queuebuf_datalen
                0x00000000        0x0 contiki-OrisenStamp.a(queuebuf.o)
 .text.queuebuf_addr
                0x00000000        0x0 contiki-OrisenStamp.a(queuebuf.o)
 .text.queuebuf_attr
                0x00000000        0x0 contiki-OrisenStamp.a(queuebuf.o)
 .text.queuebuf_debug_print
                0x00000000        0x0 contiki-OrisenStamp.a(queuebuf.o)
 .text.queuebuf_dataptr
                0x00000000        0x0 contiki-OrisenStamp.a(queuebuf.o)
 .text          0x00000000        0x0 contiki-OrisenStamp.a(packetqueue.o)
 .data          0x00000000        0x0 contiki-OrisenStamp.a(packetqueue.o)
 .bss           0x00000000        0x0 contiki-OrisenStamp.a(packetqueue.o)
 .text.packetqueue_ptr
                0x00000000        0x0 contiki-OrisenStamp.a(packetqueue.o)
 .text.packetqueue_init
                0x00000000        0x0 contiki-OrisenStamp.a(packetqueue.o)
 .text          0x00000000        0x0 contiki-OrisenStamp.a(clock.o)
 .data          0x00000000        0x0 contiki-OrisenStamp.a(clock.o)
 .bss           0x00000000        0x0 contiki-OrisenStamp.a(clock.o)
 .text.clock_wait
                0x00000000        0x0 contiki-OrisenStamp.a(clock.o)
 .text.clock_delay
                0x00000000        0x0 contiki-OrisenStamp.a(clock.o)
 .text.clock_adjust_ticks
                0x00000000        0x0 contiki-OrisenStamp.a(clock.o)
 .text          0x00000000        0x0 contiki-OrisenStamp.a(button-sensor.o)
 .data          0x00000000        0x0 contiki-OrisenStamp.a(button-sensor.o)
 .bss           0x00000000        0x0 contiki-OrisenStamp.a(button-sensor.o)
 .text          0x00000000        0x0 contiki-OrisenStamp.a(sensors.o)
 .data          0x00000000        0x0 contiki-OrisenStamp.a(sensors.o)
 .bss           0x00000000        0x0 contiki-OrisenStamp.a(sensors.o)
 .text.sensors_first
                0x00000000        0x0 contiki-OrisenStamp.a(sensors.o)
 .text.sensors_next
                0x00000000        0x0 contiki-OrisenStamp.a(sensors.o)
 .text.sensors_find
                0x00000000        0x0 contiki-OrisenStamp.a(sensors.o)
 .text          0x00000000        0x0 contiki-OrisenStamp.a(RTC.o)
 .data          0x00000000        0x0 contiki-OrisenStamp.a(RTC.o)
 .bss           0x00000000        0x0 contiki-OrisenStamp.a(RTC.o)
 .text.RTC_clearAlarm
                0x00000000        0x0 contiki-OrisenStamp.a(RTC.o)
 .text.RTC_getAlarm
                0x00000000        0x0 contiki-OrisenStamp.a(RTC.o)
 .text.RTC_setTime
                0x00000000        0x0 contiki-OrisenStamp.a(RTC.o)
 .text.RTC_getTime
                0x00000000        0x0 contiki-OrisenStamp.a(RTC.o)
 .text.RTC_setAlarm
                0x00000000        0x0 contiki-OrisenStamp.a(RTC.o)
 .rodata.RTC_setAlarm
                0x00000000        0x0 contiki-OrisenStamp.a(RTC.o)
 .bss.rxbuf.4525
                0x00000000        0x0 contiki-OrisenStamp.a(RTC.o)
 .bss.rxbuf.4402
                0x00000000        0x0 contiki-OrisenStamp.a(RTC.o)
 .bss.txbuf.4403
                0x00000000        0x0 contiki-OrisenStamp.a(RTC.o)
 .bss.txbuf.4526
                0x00000000        0x0 contiki-OrisenStamp.a(RTC.o)
 .bss.rxbuf.4267
                0x00000000        0x0 contiki-OrisenStamp.a(RTC.o)
 .bss.txbuf.4268
                0x00000000        0x0 contiki-OrisenStamp.a(RTC.o)
 .bss.rxbuf.4355
                0x00000000        0x0 contiki-OrisenStamp.a(RTC.o)
 .text          0x00000000        0x0 contiki-OrisenStamp.a(kbi_events.o)
 .data          0x00000000        0x0 contiki-OrisenStamp.a(kbi_events.o)
 .bss           0x00000000        0x0 contiki-OrisenStamp.a(kbi_events.o)
 .text.kbi_event_setHandler
                0x00000000        0x0 contiki-OrisenStamp.a(kbi_events.o)
 .text.kbi_event_clearHandler
                0x00000000        0x0 contiki-OrisenStamp.a(kbi_events.o)
 .text          0x00000000        0x0 contiki-OrisenStamp.a(io-pins.o)
 .data          0x00000000        0x0 contiki-OrisenStamp.a(io-pins.o)
 .bss           0x00000000        0x0 contiki-OrisenStamp.a(io-pins.o)
 .text.ioPins_setValue
                0x00000000        0x0 contiki-OrisenStamp.a(io-pins.o)
 .rodata.ioPins_setValue
                0x00000000        0x0 contiki-OrisenStamp.a(io-pins.o)
 .text.ioPins_getBatt
                0x00000000        0x0 contiki-OrisenStamp.a(io-pins.o)
 .text.ioPins_getValue
                0x00000000        0x0 contiki-OrisenStamp.a(io-pins.o)
 .rodata.ioPins_getValue
                0x00000000        0x0 contiki-OrisenStamp.a(io-pins.o)
 .text          0x00000000        0x0 contiki-OrisenStamp.a(contiki-crm.o)
 .data          0x00000000        0x0 contiki-OrisenStamp.a(contiki-crm.o)
 .bss           0x00000000        0x0 contiki-OrisenStamp.a(contiki-crm.o)
 .text.sleep    0x00000000        0x0 contiki-OrisenStamp.a(contiki-crm.o)
 .text.enable_32khz_xtal
                0x00000000        0x0 contiki-OrisenStamp.a(contiki-crm.o)
 .bss.rtc_count.4040
                0x00000000        0x0 contiki-OrisenStamp.a(contiki-crm.o)
 .text          0x00000000        0x0 contiki-OrisenStamp.a(contiki-maca.o)
 .data          0x00000000        0x0 contiki-OrisenStamp.a(contiki-maca.o)
 .bss           0x00000000        0x0 contiki-OrisenStamp.a(contiki-maca.o)
 .text          0x00000000        0x0 contiki-OrisenStamp.a(contiki-misc.o)
 .data          0x00000000        0x0 contiki-OrisenStamp.a(contiki-misc.o)
 .bss           0x00000000        0x0 contiki-OrisenStamp.a(contiki-misc.o)
 .text.raise    0x00000000        0x0 contiki-OrisenStamp.a(contiki-misc.o)
 .text.srand    0x00000000        0x0 contiki-OrisenStamp.a(contiki-misc.o)
 .text          0x00000000        0x0 contiki-OrisenStamp.a(leds.o)
 .data          0x00000000        0x0 contiki-OrisenStamp.a(leds.o)
 .bss           0x00000000        0x0 contiki-OrisenStamp.a(leds.o)
 .text.leds_invert
                0x00000000        0x0 contiki-OrisenStamp.a(leds.o)
 .text.leds_toggle
                0x00000000        0x0 contiki-OrisenStamp.a(leds.o)
 .text.leds_get
                0x00000000        0x0 contiki-OrisenStamp.a(leds.o)
 .text.leds_blink
                0x00000000        0x0 contiki-OrisenStamp.a(leds.o)
 .text          0x00000000        0x0 contiki-OrisenStamp.a(contiki-uart.o)
 .data          0x00000000        0x0 contiki-OrisenStamp.a(contiki-uart.o)
 .bss           0x00000000        0x0 contiki-OrisenStamp.a(contiki-uart.o)
 .text          0x00000000        0x0 contiki-OrisenStamp.a(dbg-printf.o)
 .data          0x00000000        0x0 contiki-OrisenStamp.a(dbg-printf.o)
 .bss           0x00000000        0x0 contiki-OrisenStamp.a(dbg-printf.o)
 .text          0x00000000        0x0 contiki-OrisenStamp.a(dbg-sprintf.o)
 .data          0x00000000        0x0 contiki-OrisenStamp.a(dbg-sprintf.o)
 .bss           0x00000000        0x0 contiki-OrisenStamp.a(dbg-sprintf.o)
 .text          0x00000000        0x0 contiki-OrisenStamp.a(strformat.o)
 .data          0x00000000        0x0 contiki-OrisenStamp.a(strformat.o)
 .bss           0x00000000        0x0 contiki-OrisenStamp.a(strformat.o)
 .text.format_str
                0x00000000        0x0 contiki-OrisenStamp.a(strformat.o)
 .text          0x00000000        0x0 contiki-OrisenStamp.a(adc.o)
 .data          0x00000000        0x0 contiki-OrisenStamp.a(adc.o)
 .bss           0x00000000        0x0 contiki-OrisenStamp.a(adc.o)
 .text.ADC_flush
                0x00000000        0x0 contiki-OrisenStamp.a(adc.o)
 .text.ADC_READ
                0x00000000        0x0 contiki-OrisenStamp.a(adc.o)
 .text.adc_service
                0x00000000        0x0 contiki-OrisenStamp.a(adc.o)
 .bss.adc_reading
                0x00000000        0x0 contiki-OrisenStamp.a(adc.o)
 .text          0x00000000        0x0 contiki-OrisenStamp.a(gpio.o)
 .data          0x00000000        0x0 contiki-OrisenStamp.a(gpio.o)
 .bss           0x00000000        0x0 contiki-OrisenStamp.a(gpio.o)
 .text.gpio_pad_dir
                0x00000000        0x0 contiki-OrisenStamp.a(gpio.o)
 .text.gpio_data
                0x00000000        0x0 contiki-OrisenStamp.a(gpio.o)
 .text.gpio_pad_pu_en
                0x00000000        0x0 contiki-OrisenStamp.a(gpio.o)
 .text.gpio_data_sel
                0x00000000        0x0 contiki-OrisenStamp.a(gpio.o)
 .text.gpio_pad_pu_sel
                0x00000000        0x0 contiki-OrisenStamp.a(gpio.o)
 .text.gpio_data_set
                0x00000000        0x0 contiki-OrisenStamp.a(gpio.o)
 .text.gpio_data_reset
                0x00000000        0x0 contiki-OrisenStamp.a(gpio.o)
 .text.gpio_pad_dir_set
                0x00000000        0x0 contiki-OrisenStamp.a(gpio.o)
 .text.gpio_pad_dir_reset
                0x00000000        0x0 contiki-OrisenStamp.a(gpio.o)
 .text          0x00000000        0x0 contiki-OrisenStamp.a(gpio-util.o)
 .data          0x00000000        0x0 contiki-OrisenStamp.a(gpio-util.o)
 .bss           0x00000000        0x0 contiki-OrisenStamp.a(gpio-util.o)
 .text.gpio_set
                0x00000000        0x0 contiki-OrisenStamp.a(gpio-util.o)
 .text.gpio_reset
                0x00000000        0x0 contiki-OrisenStamp.a(gpio-util.o)
 .text.gpio_read
                0x00000000        0x0 contiki-OrisenStamp.a(gpio-util.o)
 .text          0x00000000        0x0 contiki-OrisenStamp.a(i2c.o)
 .data          0x00000000        0x0 contiki-OrisenStamp.a(i2c.o)
 .bss           0x00000000        0x0 contiki-OrisenStamp.a(i2c.o)
 .text.i2c_disable
                0x00000000        0x0 contiki-OrisenStamp.a(i2c.o)
 .bss.i         0x00000000        0x0 contiki-OrisenStamp.a(i2c.o)
 .text          0x00000000        0x0 contiki-OrisenStamp.a(maca.o)
 .data          0x00000000        0x0 contiki-OrisenStamp.a(maca.o)
 .bss           0x00000000        0x0 contiki-OrisenStamp.a(maca.o)
 .text.bad_packet_bounds
                0x00000000        0x0 contiki-OrisenStamp.a(maca.o)
 .text.count_packets
                0x00000000        0x0 contiki-OrisenStamp.a(maca.o)
 .text.bound_check
                0x00000000        0x0 contiki-OrisenStamp.a(maca.o)
 .text.maca_off
                0x00000000        0x0 contiki-OrisenStamp.a(maca.o)
 .text.maca_on  0x00000000        0x0 contiki-OrisenStamp.a(maca.o)
 .text.set_demodulator_type
                0x00000000        0x0 contiki-OrisenStamp.a(maca.o)
 .text.Print_Packets
                0x00000000        0x0 contiki-OrisenStamp.a(maca.o)
 .rodata.str1.1
                0x00000000        0x0 contiki-OrisenStamp.a(maca.o)
 .text          0x00000000        0x0 contiki-OrisenStamp.a(nvm.o)
 .data          0x00000000        0x0 contiki-OrisenStamp.a(nvm.o)
 .bss           0x00000000        0x0 contiki-OrisenStamp.a(nvm.o)
 .data.nvm_erase
                0x00000000        0x0 contiki-OrisenStamp.a(nvm.o)
 .text          0x00000000        0x0 contiki-OrisenStamp.a(uart1.o)
 .data          0x00000000        0x0 contiki-OrisenStamp.a(uart1.o)
 .bss           0x00000000        0x0 contiki-OrisenStamp.a(uart1.o)
 .text          0x00000000        0x0 contiki-OrisenStamp.a(uart2.o)
 .data          0x00000000        0x0 contiki-OrisenStamp.a(uart2.o)
 .bss           0x00000000        0x0 contiki-OrisenStamp.a(uart2.o)
 .text.uart2_putc
                0x00000000        0x0 contiki-OrisenStamp.a(uart2.o)
 .text          0x00000000        0x0 contiki-OrisenStamp.a(default_lowleve)
 .data          0x00000000        0x0 contiki-OrisenStamp.a(default_lowleve)
 .bss           0x00000000        0x0 contiki-OrisenStamp.a(default_lowleve)
 .text          0x00000000        0x0 contiki-OrisenStamp.a(isr.o)
 .data          0x00000000        0x0 contiki-OrisenStamp.a(isr.o)
 .bss           0x00000000        0x0 contiki-OrisenStamp.a(isr.o)
 .text.irq_register_timer_handler
                0x00000000        0x0 contiki-OrisenStamp.a(isr.o)
 .text          0x00000000        0x0 contiki-OrisenStamp.a(unicast.o)
 .data          0x00000000        0x0 contiki-OrisenStamp.a(unicast.o)
 .bss           0x00000000        0x0 contiki-OrisenStamp.a(unicast.o)
 .text.unicast_close
                0x00000000        0x0 contiki-OrisenStamp.a(unicast.o)
 .text          0x00000000        0x0 contiki-OrisenStamp.a(frame802154.o)
 .data          0x00000000        0x0 contiki-OrisenStamp.a(frame802154.o)
 .bss           0x00000000        0x0 contiki-OrisenStamp.a(frame802154.o)
 .text          0x00000000        0x0 contiki-OrisenStamp.a(debug-uart.o)
 .data          0x00000000        0x0 contiki-OrisenStamp.a(debug-uart.o)
 .bss           0x00000000        0x0 contiki-OrisenStamp.a(debug-uart.o)
 .text          0x00000000        0x0 contiki-OrisenStamp.a(leds-arch.o)
 .data          0x00000000        0x0 contiki-OrisenStamp.a(leds-arch.o)
 .bss           0x00000000        0x0 contiki-OrisenStamp.a(leds-arch.o)
 .text.leds_arch_get
                0x00000000        0x0 contiki-OrisenStamp.a(leds-arch.o)
 .data          0x00000000        0x0 /home/user/CodeSourcery/Sourcery_G++_Lite/bin/../lib/gcc/arm-none-eabi/4.3.2/libgcc.a(_udivsi3.o)
 .bss           0x00000000        0x0 /home/user/CodeSourcery/Sourcery_G++_Lite/bin/../lib/gcc/arm-none-eabi/4.3.2/libgcc.a(_udivsi3.o)
 .data          0x00000000        0x0 /home/user/CodeSourcery/Sourcery_G++_Lite/bin/../lib/gcc/arm-none-eabi/4.3.2/libgcc.a(_divsi3.o)
 .bss           0x00000000        0x0 /home/user/CodeSourcery/Sourcery_G++_Lite/bin/../lib/gcc/arm-none-eabi/4.3.2/libgcc.a(_divsi3.o)
 .data          0x00000000        0x0 /home/user/CodeSourcery/Sourcery_G++_Lite/bin/../lib/gcc/arm-none-eabi/4.3.2/libgcc.a(_dvmd_tls.o)
 .bss           0x00000000        0x0 /home/user/CodeSourcery/Sourcery_G++_Lite/bin/../lib/gcc/arm-none-eabi/4.3.2/libgcc.a(_dvmd_tls.o)
 .data          0x00000000        0x0 /home/user/CodeSourcery/Sourcery_G++_Lite/bin/../lib/gcc/arm-none-eabi/4.3.2/libgcc.a(_aeabi_uldivmod.o)
 .bss           0x00000000        0x0 /home/user/CodeSourcery/Sourcery_G++_Lite/bin/../lib/gcc/arm-none-eabi/4.3.2/libgcc.a(_aeabi_uldivmod.o)
 .data          0x00000000        0x0 /home/user/CodeSourcery/Sourcery_G++_Lite/bin/../lib/gcc/arm-none-eabi/4.3.2/libgcc.a(bpabi.o)
 .bss           0x00000000        0x0 /home/user/CodeSourcery/Sourcery_G++_Lite/bin/../lib/gcc/arm-none-eabi/4.3.2/libgcc.a(bpabi.o)
 .data          0x00000000        0x0 /home/user/CodeSourcery/Sourcery_G++_Lite/bin/../lib/gcc/arm-none-eabi/4.3.2/libgcc.a(_divdi3.o)
 .bss           0x00000000        0x0 /home/user/CodeSourcery/Sourcery_G++_Lite/bin/../lib/gcc/arm-none-eabi/4.3.2/libgcc.a(_divdi3.o)
 .ARM.extab     0x00000000        0x0 /home/user/CodeSourcery/Sourcery_G++_Lite/bin/../lib/gcc/arm-none-eabi/4.3.2/libgcc.a(_divdi3.o)
 .data          0x00000000        0x0 /home/user/CodeSourcery/Sourcery_G++_Lite/bin/../lib/gcc/arm-none-eabi/4.3.2/libgcc.a(_udivdi3.o)
 .bss           0x00000000        0x0 /home/user/CodeSourcery/Sourcery_G++_Lite/bin/../lib/gcc/arm-none-eabi/4.3.2/libgcc.a(_udivdi3.o)
 .ARM.extab     0x00000000        0x0 /home/user/CodeSourcery/Sourcery_G++_Lite/bin/../lib/gcc/arm-none-eabi/4.3.2/libgcc.a(_udivdi3.o)
 .text          0x00000000        0x0 /home/user/CodeSourcery/Sourcery_G++_Lite/bin/../lib/gcc/arm-none-eabi/4.3.2/libgcc.a(_clz.o)
 .data          0x00000000        0x0 /home/user/CodeSourcery/Sourcery_G++_Lite/bin/../lib/gcc/arm-none-eabi/4.3.2/libgcc.a(_clz.o)
 .bss           0x00000000        0x0 /home/user/CodeSourcery/Sourcery_G++_Lite/bin/../lib/gcc/arm-none-eabi/4.3.2/libgcc.a(_clz.o)
 .data          0x00000000        0x0 /home/user/CodeSourcery/Sourcery_G++_Lite/bin/../lib/gcc/arm-none-eabi/4.3.2/../../../../arm-none-eabi/lib/libc.a(lib_a-malloc.o)
 .bss           0x00000000        0x0 /home/user/CodeSourcery/Sourcery_G++_Lite/bin/../lib/gcc/arm-none-eabi/4.3.2/../../../../arm-none-eabi/lib/libc.a(lib_a-malloc.o)
 .data          0x00000000        0x0 /home/user/CodeSourcery/Sourcery_G++_Lite/bin/../lib/gcc/arm-none-eabi/4.3.2/../../../../arm-none-eabi/lib/libc.a(lib_a-memcmp.o)
 .bss           0x00000000        0x0 /home/user/CodeSourcery/Sourcery_G++_Lite/bin/../lib/gcc/arm-none-eabi/4.3.2/../../../../arm-none-eabi/lib/libc.a(lib_a-memcmp.o)
 .data          0x00000000        0x0 /home/user/CodeSourcery/Sourcery_G++_Lite/bin/../lib/gcc/arm-none-eabi/4.3.2/../../../../arm-none-eabi/lib/libc.a(lib_a-memcpy.o)
 .bss           0x00000000        0x0 /home/user/CodeSourcery/Sourcery_G++_Lite/bin/../lib/gcc/arm-none-eabi/4.3.2/../../../../arm-none-eabi/lib/libc.a(lib_a-memcpy.o)
 .data          0x00000000        0x0 /home/user/CodeSourcery/Sourcery_G++_Lite/bin/../lib/gcc/arm-none-eabi/4.3.2/../../../../arm-none-eabi/lib/libc.a(lib_a-memset.o)
 .bss           0x00000000        0x0 /home/user/CodeSourcery/Sourcery_G++_Lite/bin/../lib/gcc/arm-none-eabi/4.3.2/../../../../arm-none-eabi/lib/libc.a(lib_a-memset.o)
 .data          0x00000000        0x0 /home/user/CodeSourcery/Sourcery_G++_Lite/bin/../lib/gcc/arm-none-eabi/4.3.2/../../../../arm-none-eabi/lib/libc.a(lib_a-mlock.o)
 .bss           0x00000000        0x0 /home/user/CodeSourcery/Sourcery_G++_Lite/bin/../lib/gcc/arm-none-eabi/4.3.2/../../../../arm-none-eabi/lib/libc.a(lib_a-mlock.o)
 .data          0x00000000        0x0 /home/user/CodeSourcery/Sourcery_G++_Lite/bin/../lib/gcc/arm-none-eabi/4.3.2/../../../../arm-none-eabi/lib/libc.a(lib_a-sbrkr.o)
 .bss           0x00000000        0x0 /home/user/CodeSourcery/Sourcery_G++_Lite/bin/../lib/gcc/arm-none-eabi/4.3.2/../../../../arm-none-eabi/lib/libc.a(lib_a-sbrkr.o)
 .data          0x00000000        0x0 /home/user/CodeSourcery/Sourcery_G++_Lite/bin/../lib/gcc/arm-none-eabi/4.3.2/../../../../arm-none-eabi/lib/libc.a(lib_a-strcat.o)
 .bss           0x00000000        0x0 /home/user/CodeSourcery/Sourcery_G++_Lite/bin/../lib/gcc/arm-none-eabi/4.3.2/../../../../arm-none-eabi/lib/libc.a(lib_a-strcat.o)
 .data          0x00000000        0x0 /home/user/CodeSourcery/Sourcery_G++_Lite/bin/../lib/gcc/arm-none-eabi/4.3.2/../../../../arm-none-eabi/lib/libc.a(lib_a-strcpy.o)
 .bss           0x00000000        0x0 /home/user/CodeSourcery/Sourcery_G++_Lite/bin/../lib/gcc/arm-none-eabi/4.3.2/../../../../arm-none-eabi/lib/libc.a(lib_a-strcpy.o)
 .data          0x00000000        0x0 /home/user/CodeSourcery/Sourcery_G++_Lite/bin/../lib/gcc/arm-none-eabi/4.3.2/../../../../arm-none-eabi/lib/libc.a(lib_a-strlen.o)
 .bss           0x00000000        0x0 /home/user/CodeSourcery/Sourcery_G++_Lite/bin/../lib/gcc/arm-none-eabi/4.3.2/../../../../arm-none-eabi/lib/libc.a(lib_a-strlen.o)
 .text          0x00000000        0x0 /home/user/CodeSourcery/Sourcery_G++_Lite/bin/../lib/gcc/arm-none-eabi/4.3.2/../../../../arm-none-eabi/lib/libc.a(lib_a-strncmp.o)
 .data          0x00000000        0x0 /home/user/CodeSourcery/Sourcery_G++_Lite/bin/../lib/gcc/arm-none-eabi/4.3.2/../../../../arm-none-eabi/lib/libc.a(lib_a-strncmp.o)
 .bss           0x00000000        0x0 /home/user/CodeSourcery/Sourcery_G++_Lite/bin/../lib/gcc/arm-none-eabi/4.3.2/../../../../arm-none-eabi/lib/libc.a(lib_a-strncmp.o)
 .data          0x00000000        0x0 /home/user/CodeSourcery/Sourcery_G++_Lite/bin/../lib/gcc/arm-none-eabi/4.3.2/../../../../arm-none-eabi/lib/libc.a(lib_a-freer.o)
 .bss           0x00000000        0x0 /home/user/CodeSourcery/Sourcery_G++_Lite/bin/../lib/gcc/arm-none-eabi/4.3.2/../../../../arm-none-eabi/lib/libc.a(lib_a-freer.o)
 .text          0x00000000        0x0 /home/user/CodeSourcery/Sourcery_G++_Lite/bin/../lib/gcc/arm-none-eabi/4.3.2/../../../../arm-none-eabi/lib/libc.a(lib_a-impure.o)
 .bss           0x00000000        0x0 /home/user/CodeSourcery/Sourcery_G++_Lite/bin/../lib/gcc/arm-none-eabi/4.3.2/../../../../arm-none-eabi/lib/libc.a(lib_a-impure.o)
 .rodata        0x00000000        0x0 /home/user/CodeSourcery/Sourcery_G++_Lite/bin/../lib/gcc/arm-none-eabi/4.3.2/../../../../arm-none-eabi/lib/libc.a(lib_a-impure.o)
 .text          0x00000000        0x0 /home/user/CodeSourcery/Sourcery_G++_Lite/bin/../lib/gcc/arm-none-eabi/4.3.2/../../../../arm-none-eabi/lib/libc.a(lib_a-reent.o)
 .data          0x00000000        0x0 /home/user/CodeSourcery/Sourcery_G++_Lite/bin/../lib/gcc/arm-none-eabi/4.3.2/../../../../arm-none-eabi/lib/libc.a(lib_a-reent.o)
 .bss           0x00000000        0x0 /home/user/CodeSourcery/Sourcery_G++_Lite/bin/../lib/gcc/arm-none-eabi/4.3.2/../../../../arm-none-eabi/lib/libc.a(lib_a-reent.o)

Memory Configuration

Name             Origin             Length             Attributes
ram              0x00400000         0x00018000         xrw
*default*        0x00000000         0xffffffff

Linker script and memory map

LOAD syncSensor.co
LOAD obj_OrisenStamp/contiki-stamp-main.o
LOAD obj_OrisenStamp/start.o
LOAD contiki-OrisenStamp.a
LOAD contiki-OrisenStamp.a
START GROUP
LOAD /home/user/CodeSourcery/Sourcery_G++_Lite/bin/../lib/gcc/arm-none-eabi/4.3.2/libgcc.a
LOAD /home/user/CodeSourcery/Sourcery_G++_Lite/bin/../lib/gcc/arm-none-eabi/4.3.2/../../../../arm-none-eabi/lib/libc.a
END GROUP
                0x00000400                SYS_STACK_SIZE = 0x400
                0x00000100                IRQ_STACK_SIZE = 0x100
                0x00000100                FIQ_STACK_SIZE = 0x100
                0x00000100                SVC_STACK_SIZE = 0x100
                0x00000010                ABT_STACK_SIZE = 0x10
                0x00000010                UND_STACK_SIZE = 0x10
                0x00001000                HEAP_SIZE = 0x1000
                0x00400000                PROVIDE (__executable_start, 0x400000)
                0x00400000                . = 0x400000

.text           0x00400000     0xa990
 *(.start)
 .start         0x00400000      0x8b4 obj_OrisenStamp/start.o
                0x00400890                _bss_start
                0x00400894                _bss_end
                0x00400000                _start
 *(.irq)
 .irq           0x004008b4      0x214 contiki-OrisenStamp.a(isr.o)
                0x004008b4                irq
 *(.text .stub .text.* .gnu.linkonce.t.*)
 .text.process_thread_ledflasher_process
                0x00400ac8       0x78 syncSensor.co
 .text.process_thread_pairing_process
                0x00400b40       0xf4 syncSensor.co
 .text.recv     0x00400c34       0x4c syncSensor.co
 .text.process_thread_uart_process
                0x00400c80      0x230 syncSensor.co
 .text.process_thread_example_collect_process
                0x00400eb0      0x1cc syncSensor.co
 .text.sd_card_switch_init
                0x0040107c       0x44 obj_OrisenStamp/contiki-stamp-main.o
                0x0040107c                sd_card_switch_init
                0x00401084                .real_start_ofsd_card_switch_init
 .text.kbi4_init
                0x004010c0       0x64 obj_OrisenStamp/contiki-stamp-main.o
                0x004010c8                .real_start_ofkbi4_init
                0x004010c0                kbi4_init
 .text.kbi5_init
                0x00401124       0x68 obj_OrisenStamp/contiki-stamp-main.o
                0x00401124                kbi5_init
                0x0040112c                .real_start_ofkbi5_init
 .text.print_welcome
                0x0040118c       0x40 obj_OrisenStamp/contiki-stamp-main.o
                0x0040118c                print_welcome
                0x00401194                .real_start_ofprint_welcome
 .text.set_rimeaddr
                0x004011cc      0x104 obj_OrisenStamp/contiki-stamp-main.o
                0x004011cc                set_rimeaddr
                0x004011d4                .real_start_ofset_rimeaddr
 .text.stamp_init
                0x004012d0       0xc4 obj_OrisenStamp/contiki-stamp-main.o
                0x004012d8                .real_start_ofstamp_init
                0x004012d0                stamp_init
 .text.init_lowlevel
                0x00401394       0x60 obj_OrisenStamp/contiki-stamp-main.o
                0x00401394                init_lowlevel
                0x0040139c                .real_start_ofinit_lowlevel
 .text.main     0x004013f4      0x1e0 obj_OrisenStamp/contiki-stamp-main.o
                0x004013fc                .real_start_ofmain
                0x004013f4                main
 .text.rimeaddr_copy
                0x004015d4       0x1c contiki-OrisenStamp.a(rimeaddr.o)
                0x004015d4                rimeaddr_copy
                0x004015dc                .real_start_ofrimeaddr_copy
 .text.rimeaddr_cmp
                0x004015f0       0x2c contiki-OrisenStamp.a(rimeaddr.o)
                0x004015f8                .real_start_ofrimeaddr_cmp
                0x004015f0                rimeaddr_cmp
 .text.rimeaddr_set_node_addr
                0x0040161c       0x28 contiki-OrisenStamp.a(rimeaddr.o)
                0x0040161c                rimeaddr_set_node_addr
                0x00401624                .real_start_ofrimeaddr_set_node_addr
 .text.input    0x00401644       0x60 contiki-OrisenStamp.a(rime.o)
 .text.init     0x004016a4       0x50 contiki-OrisenStamp.a(rime.o)
 .text.rime_output
                0x004016f4       0x50 contiki-OrisenStamp.a(rime.o)
                0x004016fc                .real_start_ofrime_output
                0x004016f4                rime_output
 .text.packet_sent
                0x00401744       0x50 contiki-OrisenStamp.a(rime.o)
 .text.announcement_set_value
                0x00401794       0x3c contiki-OrisenStamp.a(announcement.o)
                0x00401794                announcement_set_value
                0x0040179c                .real_start_ofannouncement_set_value
 .text.announcement_bump
                0x004017d0       0x38 contiki-OrisenStamp.a(announcement.o)
                0x004017d8                .real_start_ofannouncement_bump
                0x004017d0                announcement_bump
 .text.announcement_register_observer_callback
                0x00401808       0x14 contiki-OrisenStamp.a(announcement.o)
                0x00401808                announcement_register_observer_callback
                0x00401810                .real_start_ofannouncement_register_observer_callback
 .text.announcement_list
                0x0040181c       0x24 contiki-OrisenStamp.a(announcement.o)
                0x00401824                .real_start_ofannouncement_list
                0x0040181c                announcement_list
 .text.announcement_heard
                0x00401840       0x50 contiki-OrisenStamp.a(announcement.o)
                0x00401840                announcement_heard
                0x00401848                .real_start_ofannouncement_heard
 .text.announcement_register
                0x00401890       0x50 contiki-OrisenStamp.a(announcement.o)
                0x00401898                .real_start_ofannouncement_register
                0x00401890                announcement_register
 .text.announcement_init
                0x004018e0       0x24 contiki-OrisenStamp.a(announcement.o)
                0x004018e8                .real_start_ofannouncement_init
                0x004018e0                announcement_init
 .text.adv_packet_sent
                0x00401904        0x4 contiki-OrisenStamp.a(broadcast-annou)
 .text.broadcast_announcement_init
                0x00401908       0x54 contiki-OrisenStamp.a(broadcast-annou)
                0x00401910                .real_start_ofbroadcast_announcement_init
                0x00401908                broadcast_announcement_init
 .text.adv_packet_received
                0x0040195c       0x7c contiki-OrisenStamp.a(broadcast-annou)
 .text.set_timers
                0x004019d8       0x54 contiki-OrisenStamp.a(broadcast-annou)
 .text.new_announcement
                0x00401a2c       0x28 contiki-OrisenStamp.a(broadcast-annou)
 .text.send_timer
                0x00401a54       0x2c contiki-OrisenStamp.a(broadcast-annou)
 .text.send_adv
                0x00401a80       0x8c contiki-OrisenStamp.a(broadcast-annou)
 .text.sent_by_abc
                0x00401b0c       0x18 contiki-OrisenStamp.a(broadcast.o)
 .text.broadcast_send
                0x00401b24       0x38 contiki-OrisenStamp.a(broadcast.o)
                0x00401b24                broadcast_send
                0x00401b2c                .real_start_ofbroadcast_send
 .text.recv_from_abc
                0x00401b5c       0x30 contiki-OrisenStamp.a(broadcast.o)
 .text.broadcast_open
                0x00401b8c       0x40 contiki-OrisenStamp.a(broadcast.o)
                0x00401b8c                broadcast_open
                0x00401b94                .real_start_ofbroadcast_open
 .text.abc_input
                0x00401bcc       0x1c contiki-OrisenStamp.a(abc.o)
                0x00401bcc                abc_input
                0x00401bd4                .real_start_ofabc_input
 .text.abc_sent
                0x00401be8       0x20 contiki-OrisenStamp.a(abc.o)
                0x00401be8                abc_sent
                0x00401bf0                .real_start_ofabc_sent
 .text.abc_send
                0x00401c08       0x20 contiki-OrisenStamp.a(abc.o)
                0x00401c08                abc_send
                0x00401c10                .real_start_ofabc_send
 .text.abc_open
                0x00401c28       0x38 contiki-OrisenStamp.a(abc.o)
                0x00401c28                abc_open
                0x00401c30                .real_start_ofabc_open
 .text.packetbuf_set_attr
                0x00401c60       0x10 contiki-OrisenStamp.a(collect.o)
 .text.packetbuf_addr
                0x00401c70       0x10 contiki-OrisenStamp.a(collect.o)
 .text.collect_parent
                0x00401c80        0xc contiki-OrisenStamp.a(collect.o)
                0x00401c88                .real_start_ofcollect_parent
                0x00401c80                collect_parent
 .text.packetbuf_set_addr
                0x00401c8c       0x28 contiki-OrisenStamp.a(collect.o)
 .text.bump_advertisement
                0x00401cb4       0x18 contiki-OrisenStamp.a(collect.o)
 .text.send_packet
                0x00401ccc       0x48 contiki-OrisenStamp.a(collect.o)
 .text.send_queued_packet
                0x00401d14      0x10c contiki-OrisenStamp.a(collect.o)
 .text.update_rtmetric
                0x00401e20      0x124 contiki-OrisenStamp.a(collect.o)
 .text.send_next_packet
                0x00401f44       0x48 contiki-OrisenStamp.a(collect.o)
 .text.set_keepalive_timer
                0x00401f8c       0x5c contiki-OrisenStamp.a(collect.o)
 .text.timedout
                0x00401fe8       0x90 contiki-OrisenStamp.a(collect.o)
 .text.retransmit_callback
                0x00402078      0x128 contiki-OrisenStamp.a(collect.o)
 .text.retransmit_not_sent_callback
                0x004021a0       0x20 contiki-OrisenStamp.a(collect.o)
 .text.node_packet_sent
                0x004021c0       0x7c contiki-OrisenStamp.a(collect.o)
 .text.enqueue_dummy_packet
                0x0040223c       0x9c contiki-OrisenStamp.a(collect.o)
 .text.send_keepalive
                0x004022d8       0x54 contiki-OrisenStamp.a(collect.o)
 .text.collect_send
                0x0040232c      0x148 contiki-OrisenStamp.a(collect.o)
                0x00402334                .real_start_ofcollect_send
                0x0040232c                collect_send
 .text.collect_open
                0x00402474      0x104 contiki-OrisenStamp.a(collect.o)
                0x00402474                collect_open
                0x0040247c                .real_start_ofcollect_open
 .text.add_packet_to_recent_packets
                0x00402578       0x68 contiki-OrisenStamp.a(collect.o)
 .text.send_ack
                0x004025e0       0xac contiki-OrisenStamp.a(collect.o)
 .text.node_packet_received
                0x0040268c      0x3d8 contiki-OrisenStamp.a(collect.o)
 .text.proactive_probing_callback
                0x00402a64      0x100 contiki-OrisenStamp.a(collect.o)
 .text.received_announcement
                0x00402b64       0xc4 contiki-OrisenStamp.a(collect.o)
 .text.collect_neighbor_list
                0x00402c28        0xc contiki-OrisenStamp.a(collect-neighbo)
                0x00402c30                .real_start_ofcollect_neighbor_list
                0x00402c28                collect_neighbor_list
 .text.collect_neighbor_update_rtmetric
                0x00402c34       0x18 contiki-OrisenStamp.a(collect-neighbo)
                0x00402c3c                .real_start_ofcollect_neighbor_update_rtmetric
                0x00402c34                collect_neighbor_update_rtmetric
 .text.collect_neighbor_rtmetric
                0x00402c4c        0xc contiki-OrisenStamp.a(collect-neighbo)
                0x00402c54                .real_start_ofcollect_neighbor_rtmetric
                0x00402c4c                collect_neighbor_rtmetric
 .text.collect_neighbor_set_congested
                0x00402c58       0x28 contiki-OrisenStamp.a(collect-neighbo)
                0x00402c60                .real_start_ofcollect_neighbor_set_congested
                0x00402c58                collect_neighbor_set_congested
 .text.collect_neighbor_rtmetric_link_estimate
                0x00402c80       0x28 contiki-OrisenStamp.a(collect-neighbo)
                0x00402c80                collect_neighbor_rtmetric_link_estimate
                0x00402c88                .real_start_ofcollect_neighbor_rtmetric_link_estimate
 .text.collect_neighbor_tx
                0x00402ca8       0x2c contiki-OrisenStamp.a(collect-neighbo)
                0x00402cb0                .real_start_ofcollect_neighbor_tx
                0x00402ca8                collect_neighbor_tx
 .text.collect_neighbor_tx_fail
                0x00402cd4       0x2c contiki-OrisenStamp.a(collect-neighbo)
                0x00402cd4                collect_neighbor_tx_fail
                0x00402cdc                .real_start_ofcollect_neighbor_tx_fail
 .text.collect_neighbor_list_best
                0x00402d00       0x5c contiki-OrisenStamp.a(collect-neighbo)
                0x00402d08                .real_start_ofcollect_neighbor_list_best
                0x00402d00                collect_neighbor_list_best
 .text.collect_neighbor_list_find
                0x00402d5c       0x48 contiki-OrisenStamp.a(collect-neighbo)
                0x00402d64                .real_start_ofcollect_neighbor_list_find
                0x00402d5c                collect_neighbor_list_find
 .text.collect_neighbor_list_add
                0x00402da4       0xd0 contiki-OrisenStamp.a(collect-neighbo)
                0x00402dac                .real_start_ofcollect_neighbor_list_add
                0x00402da4                collect_neighbor_list_add
 .text.collect_neighbor_list_new
                0x00402e74       0x44 contiki-OrisenStamp.a(collect-neighbo)
                0x00402e7c                .real_start_ofcollect_neighbor_list_new
                0x00402e74                collect_neighbor_list_new
 .text.periodic
                0x00402eb8       0xac contiki-OrisenStamp.a(collect-neighbo)
 .text.collect_neighbor_init
                0x00402f64       0x34 contiki-OrisenStamp.a(collect-neighbo)
                0x00402f6c                .real_start_ofcollect_neighbor_init
                0x00402f64                collect_neighbor_init
 .text.collect_link_estimate_new
                0x00402f98       0x14 contiki-OrisenStamp.a(collect-link-es)
                0x00402f98                collect_link_estimate_new
                0x00402fa0                .real_start_ofcollect_link_estimate_new
 .text.collect_link_estimate_update_tx
                0x00402fac       0x3c contiki-OrisenStamp.a(collect-link-es)
                0x00402fb4                .real_start_ofcollect_link_estimate_update_tx
                0x00402fac                collect_link_estimate_update_tx
 .text.collect_link_estimate_update_tx_fail
                0x00402fe8       0x24 contiki-OrisenStamp.a(collect-link-es)
                0x00402ff0                .real_start_ofcollect_link_estimate_update_tx_fail
                0x00402fe8                collect_link_estimate_update_tx_fail
 .text.collect_link_estimate
                0x0040300c       0x1c contiki-OrisenStamp.a(collect-link-es)
                0x00403014                .real_start_ofcollect_link_estimate
                0x0040300c                collect_link_estimate
 .text.collect_link_estimate_num_estimates
                0x00403028       0x14 contiki-OrisenStamp.a(collect-link-es)
                0x00403028                collect_link_estimate_num_estimates
                0x00403030                .real_start_ofcollect_link_estimate_num_estimates
 .text.packetbuf_set_attr
                0x0040303c       0x10 contiki-OrisenStamp.a(chameleon.o)
 .text.chameleon_parse
                0x0040304c       0x38 contiki-OrisenStamp.a(chameleon.o)
                0x0040304c                chameleon_parse
                0x00403054                .real_start_ofchameleon_parse
 .text.chameleon_create
                0x00403084       0x38 contiki-OrisenStamp.a(chameleon.o)
                0x00403084                chameleon_create
                0x0040308c                .real_start_ofchameleon_create
 .text.chameleon_hdrsize
                0x004030bc       0x20 contiki-OrisenStamp.a(chameleon.o)
                0x004030bc                chameleon_hdrsize
                0x004030c4                .real_start_ofchameleon_hdrsize
 .text.chameleon_init
                0x004030dc       0x20 contiki-OrisenStamp.a(chameleon.o)
                0x004030dc                chameleon_init
                0x004030e4                .real_start_ofchameleon_init
 .text.channel_lookup
                0x004030fc       0x38 contiki-OrisenStamp.a(channel.o)
                0x004030fc                channel_lookup
                0x00403104                .real_start_ofchannel_lookup
 .text.channel_open
                0x00403134       0x2c contiki-OrisenStamp.a(channel.o)
                0x00403134                channel_open
                0x0040313c                .real_start_ofchannel_open
 .text.channel_set_attributes
                0x00403160       0x38 contiki-OrisenStamp.a(channel.o)
                0x00403160                channel_set_attributes
                0x00403168                .real_start_ofchannel_set_attributes
 .text.channel_init
                0x00403198       0x24 contiki-OrisenStamp.a(channel.o)
                0x004031a0                .real_start_ofchannel_init
                0x00403198                channel_init
 .text.get_bits_in_byte
                0x004031bc       0x2c contiki-OrisenStamp.a(chameleon-bitop)
                0x004031bc                get_bits_in_byte
                0x004031c4                .real_start_ofget_bits_in_byte
 .text.get_bits
                0x004031e8       0x9c contiki-OrisenStamp.a(chameleon-bitop)
                0x004031f0                .real_start_ofget_bits
                0x004031e8                get_bits
 .text.header_size
                0x00403284       0x18 contiki-OrisenStamp.a(chameleon-bitop)
 .text.set_bits_in_byte
                0x0040329c       0x2c contiki-OrisenStamp.a(chameleon-bitop)
                0x004032a4                .real_start_ofset_bits_in_byte
                0x0040329c                set_bits_in_byte
 .text.set_bits
                0x004032c8       0xa8 contiki-OrisenStamp.a(chameleon-bitop)
                0x004032c8                set_bits
                0x004032d0                .real_start_ofset_bits
 .text.pack_header
                0x00403370       0xb8 contiki-OrisenStamp.a(chameleon-bitop)
 .text.unpack_header
                0x00403428       0xec contiki-OrisenStamp.a(chameleon-bitop)
 .text.packetbuf_addr
                0x00403514       0x10 contiki-OrisenStamp.a(nullrdc.o)
 .text.on       0x00403524       0x18 contiki-OrisenStamp.a(nullrdc.o)
 .text.off      0x0040353c       0x20 contiki-OrisenStamp.a(nullrdc.o)
 .text.channel_check_interval
                0x0040355c        0x4 contiki-OrisenStamp.a(nullrdc.o)
 .text.init     0x00403560       0x18 contiki-OrisenStamp.a(nullrdc.o)
 .text.packet_input
                0x00403578       0x60 contiki-OrisenStamp.a(nullrdc.o)
 .text.send_packet
                0x004035d8       0x90 contiki-OrisenStamp.a(nullrdc.o)
 .text.send_list
                0x00403668       0x30 contiki-OrisenStamp.a(nullrdc.o)
 .text.mac_call_sent_callback
                0x00403698       0x24 contiki-OrisenStamp.a(mac.o)
                0x004036a0                .real_start_ofmac_call_sent_callback
                0x00403698                mac_call_sent_callback
 .text.packetbuf_set_attr
                0x004036bc       0x10 contiki-OrisenStamp.a(framer-802154.o)
 .text.packetbuf_addr
                0x004036cc       0x10 contiki-OrisenStamp.a(framer-802154.o)
 .text.packetbuf_set_addr
                0x004036dc       0x28 contiki-OrisenStamp.a(framer-802154.o)
 .text.parse    0x00403704       0xc8 contiki-OrisenStamp.a(framer-802154.o)
 .text.create   0x004037cc      0x15c contiki-OrisenStamp.a(framer-802154.o)
 .text.packetbuf_addr
                0x00403928       0x10 contiki-OrisenStamp.a(csma.o)
 .text.default_timebase
                0x00403938       0x20 contiki-OrisenStamp.a(csma.o)
 .text.input_packet
                0x00403958       0x18 contiki-OrisenStamp.a(csma.o)
 .text.on       0x00403970       0x18 contiki-OrisenStamp.a(csma.o)
 .text.off      0x00403988       0x18 contiki-OrisenStamp.a(csma.o)
 .text.channel_check_interval
                0x004039a0       0x20 contiki-OrisenStamp.a(csma.o)
 .text.transmit_packet_list
                0x004039c0       0x38 contiki-OrisenStamp.a(csma.o)
 .text.send_packet
                0x004039f8      0x1cc contiki-OrisenStamp.a(csma.o)
 .text.free_first_packet
                0x00403bc4       0xc4 contiki-OrisenStamp.a(csma.o)
 .text.packet_sent
                0x00403c88       0xf0 contiki-OrisenStamp.a(csma.o)
 .text.init     0x00403d78       0x30 contiki-OrisenStamp.a(csma.o)
 .text.process_alloc_event
                0x00403da8       0x18 contiki-OrisenStamp.a(process.o)
                0x00403db0                .real_start_ofprocess_alloc_event
                0x00403da8                process_alloc_event
 .text.process_init
                0x00403dc0       0x40 contiki-OrisenStamp.a(process.o)
                0x00403dc0                process_init
                0x00403dc8                .real_start_ofprocess_init
 .text.process_post
                0x00403e00       0x68 contiki-OrisenStamp.a(process.o)
                0x00403e00                process_post
                0x00403e08                .real_start_ofprocess_post
 .text.process_poll
                0x00403e68       0x2c contiki-OrisenStamp.a(process.o)
                0x00403e68                process_poll
                0x00403e70                .real_start_ofprocess_poll
 .text.process_is_running
                0x00403e94       0x10 contiki-OrisenStamp.a(process.o)
                0x00403e94                process_is_running
                0x00403e9c                .real_start_ofprocess_is_running
 .text.exit_process
                0x00403ea4       0xa4 contiki-OrisenStamp.a(process.o)
 .text.call_process
                0x00403f48       0x50 contiki-OrisenStamp.a(process.o)
 .text.process_post_synch
                0x00403f98       0x28 contiki-OrisenStamp.a(process.o)
                0x00403fa0                .real_start_ofprocess_post_synch
                0x00403f98                process_post_synch
 .text.process_start
                0x00403fc0       0x44 contiki-OrisenStamp.a(process.o)
                0x00403fc8                .real_start_ofprocess_start
                0x00403fc0                process_start
 .text.do_poll  0x00404004       0x44 contiki-OrisenStamp.a(process.o)
 .text.process_run
                0x00404048       0xdc contiki-OrisenStamp.a(process.o)
                0x00404050                .real_start_ofprocess_run
                0x00404048                process_run
 .text.process_exit
                0x00404124       0x28 contiki-OrisenStamp.a(process.o)
                0x0040412c                .real_start_ofprocess_exit
                0x00404124                process_exit
 .text.autostart_start
                0x0040414c       0x2c contiki-OrisenStamp.a(autostart.o)
                0x00404154                .real_start_ofautostart_start
                0x0040414c                autostart_start
 .text.process_thread_serial_line_process
                0x00404178       0xb4 contiki-OrisenStamp.a(serial-line.o)
 .text.serial_line_init
                0x0040422c       0x40 contiki-OrisenStamp.a(serial-line.o)
                0x00404234                .real_start_ofserial_line_init
                0x0040422c                serial_line_init
 .text.serial_line_input_byte
                0x0040426c       0x68 contiki-OrisenStamp.a(serial-line.o)
                0x00404274                .real_start_ofserial_line_input_byte
                0x0040426c                serial_line_input_byte
 .text.memb_alloc
                0x004042d4       0x38 contiki-OrisenStamp.a(memb.o)
                0x004042dc                .real_start_ofmemb_alloc
                0x004042d4                memb_alloc
 .text.memb_free
                0x0040430c       0x40 contiki-OrisenStamp.a(memb.o)
                0x0040430c                memb_free
                0x00404314                .real_start_ofmemb_free
 .text.memb_inmemb
                0x0040434c       0x34 contiki-OrisenStamp.a(memb.o)
                0x00404354                .real_start_ofmemb_inmemb
                0x0040434c                memb_inmemb
 .text.memb_init
                0x00404380       0x34 contiki-OrisenStamp.a(memb.o)
                0x00404388                .real_start_ofmemb_init
                0x00404380                memb_init
 .text.timer_expired
                0x004043b4       0x30 contiki-OrisenStamp.a(timer.o)
                0x004043b4                timer_expired
                0x004043bc                .real_start_oftimer_expired
 .text.timer_set
                0x004043e4       0x24 contiki-OrisenStamp.a(timer.o)
                0x004043ec                .real_start_oftimer_set
                0x004043e4                timer_set
 .text.list_init
                0x00404408       0x10 contiki-OrisenStamp.a(list.o)
                0x00404410                .real_start_oflist_init
                0x00404408                list_init
 .text.list_head
                0x00404418        0xc contiki-OrisenStamp.a(list.o)
                0x00404418                list_head
                0x00404420                .real_start_oflist_head
 .text.list_tail
                0x00404424       0x20 contiki-OrisenStamp.a(list.o)
                0x00404424                list_tail
                0x0040442c                .real_start_oflist_tail
 .text.list_pop
                0x00404444       0x1c contiki-OrisenStamp.a(list.o)
                0x0040444c                .real_start_oflist_pop
                0x00404444                list_pop
 .text.list_remove
                0x00404460       0x38 contiki-OrisenStamp.a(list.o)
                0x00404468                .real_start_oflist_remove
                0x00404460                list_remove
 .text.list_push
                0x00404498       0x28 contiki-OrisenStamp.a(list.o)
                0x00404498                list_push
                0x004044a0                .real_start_oflist_push
 .text.list_add
                0x004044c0       0x3c contiki-OrisenStamp.a(list.o)
                0x004044c0                list_add
                0x004044c8                .real_start_oflist_add
 .text.list_length
                0x004044fc       0x1c contiki-OrisenStamp.a(list.o)
                0x004044fc                list_length
                0x00404504                .real_start_oflist_length
 .text.list_item_next
                0x00404518       0x14 contiki-OrisenStamp.a(list.o)
                0x00404518                list_item_next
                0x00404520                .real_start_oflist_item_next
 .text.etimer_expired
                0x0040452c       0x10 contiki-OrisenStamp.a(etimer.o)
                0x00404534                .real_start_ofetimer_expired
                0x0040452c                etimer_expired
 .text.etimer_pending
                0x0040453c       0x18 contiki-OrisenStamp.a(etimer.o)
                0x0040453c                etimer_pending
                0x00404544                .real_start_ofetimer_pending
 .text.etimer_next_expiration_time
                0x00404554       0x2c contiki-OrisenStamp.a(etimer.o)
                0x00404554                etimer_next_expiration_time
                0x0040455c                .real_start_ofetimer_next_expiration_time
 .text.update_time
                0x00404580       0x54 contiki-OrisenStamp.a(etimer.o)
 .text.etimer_stop
                0x004045d4       0x4c contiki-OrisenStamp.a(etimer.o)
                0x004045d4                etimer_stop
                0x004045dc                .real_start_ofetimer_stop
 .text.etimer_request_poll
                0x00404620       0x24 contiki-OrisenStamp.a(etimer.o)
                0x00404628                .real_start_ofetimer_request_poll
                0x00404620                etimer_request_poll
 .text.process_thread_etimer_process
                0x00404644       0xc8 contiki-OrisenStamp.a(etimer.o)
 .text.add_timer
                0x0040470c       0x50 contiki-OrisenStamp.a(etimer.o)
 .text.etimer_set
                0x0040475c       0x2c contiki-OrisenStamp.a(etimer.o)
                0x0040475c                etimer_set
                0x00404764                .real_start_ofetimer_set
 .text.process_thread_ctimer_process
                0x00404788       0xa8 contiki-OrisenStamp.a(ctimer.o)
 .text.ctimer_stop
                0x00404830       0x48 contiki-OrisenStamp.a(ctimer.o)
                0x00404838                .real_start_ofctimer_stop
                0x00404830                ctimer_stop
 .text.ctimer_set
                0x00404878       0x74 contiki-OrisenStamp.a(ctimer.o)
                0x00404878                ctimer_set
                0x00404880                .real_start_ofctimer_set
 .text.ctimer_init
                0x004048ec       0x40 contiki-OrisenStamp.a(ctimer.o)
                0x004048f4                .real_start_ofctimer_init
                0x004048ec                ctimer_init
 .text.random_rand
                0x0040492c       0x24 contiki-OrisenStamp.a(random.o)
                0x0040492c                random_rand
                0x00404934                .real_start_ofrandom_rand
 .text.ringbuf_init
                0x00404950       0x18 contiki-OrisenStamp.a(ringbuf.o)
                0x00404950                ringbuf_init
                0x00404958                .real_start_ofringbuf_init
 .text.ringbuf_put
                0x00404968       0x34 contiki-OrisenStamp.a(ringbuf.o)
                0x00404968                ringbuf_put
                0x00404970                .real_start_ofringbuf_put
 .text.ringbuf_get
                0x0040499c       0x30 contiki-OrisenStamp.a(ringbuf.o)
                0x0040499c                ringbuf_get
                0x004049a4                .real_start_ofringbuf_get
 .text.packetbuf_hdrreduce
                0x004049cc       0x38 contiki-OrisenStamp.a(packetbuf.o)
                0x004049d4                .real_start_ofpacketbuf_hdrreduce
                0x004049cc                packetbuf_hdrreduce
 .text.packetbuf_set_datalen
                0x00404a04       0x14 contiki-OrisenStamp.a(packetbuf.o)
                0x00404a04                packetbuf_set_datalen
                0x00404a0c                .real_start_ofpacketbuf_set_datalen
 .text.packetbuf_dataptr
                0x00404a18       0x20 contiki-OrisenStamp.a(packetbuf.o)
                0x00404a20                .real_start_ofpacketbuf_dataptr
                0x00404a18                packetbuf_dataptr
 .text.packetbuf_hdrptr
                0x00404a38       0x1c contiki-OrisenStamp.a(packetbuf.o)
                0x00404a38                packetbuf_hdrptr
                0x00404a40                .real_start_ofpacketbuf_hdrptr
 .text.packetbuf_is_reference
                0x00404a54       0x24 contiki-OrisenStamp.a(packetbuf.o)
                0x00404a54                packetbuf_is_reference
                0x00404a5c                .real_start_ofpacketbuf_is_reference
 .text.packetbuf_reference_ptr
                0x00404a78       0x14 contiki-OrisenStamp.a(packetbuf.o)
                0x00404a78                packetbuf_reference_ptr
                0x00404a80                .real_start_ofpacketbuf_reference_ptr
 .text.packetbuf_datalen
                0x00404a8c       0x14 contiki-OrisenStamp.a(packetbuf.o)
                0x00404a8c                packetbuf_datalen
                0x00404a94                .real_start_ofpacketbuf_datalen
 .text.packetbuf_hdrlen
                0x00404aa0       0x1c contiki-OrisenStamp.a(packetbuf.o)
                0x00404aa0                packetbuf_hdrlen
                0x00404aa8                .real_start_ofpacketbuf_hdrlen
 .text.packetbuf_totlen
                0x00404abc       0x2c contiki-OrisenStamp.a(packetbuf.o)
                0x00404abc                packetbuf_totlen
                0x00404ac4                .real_start_ofpacketbuf_totlen
 .text.packetbuf_hdralloc
                0x00404ae8       0x3c contiki-OrisenStamp.a(packetbuf.o)
                0x00404af0                .real_start_ofpacketbuf_hdralloc
                0x00404ae8                packetbuf_hdralloc
 .text.packetbuf_attr_copyfrom
                0x00404b24       0x3c contiki-OrisenStamp.a(packetbuf.o)
                0x00404b24                packetbuf_attr_copyfrom
                0x00404b2c                .real_start_ofpacketbuf_attr_copyfrom
 .text.packetbuf_attr_copyto
                0x00404b60       0x38 contiki-OrisenStamp.a(packetbuf.o)
                0x00404b60                packetbuf_attr_copyto
                0x00404b68                .real_start_ofpacketbuf_attr_copyto
 .text.packetbuf_copyto
                0x00404b98       0x74 contiki-OrisenStamp.a(packetbuf.o)
                0x00404b98                packetbuf_copyto
                0x00404ba0                .real_start_ofpacketbuf_copyto
 .text.packetbuf_copyto_hdr
                0x00404c0c       0x3c contiki-OrisenStamp.a(packetbuf.o)
                0x00404c0c                packetbuf_copyto_hdr
                0x00404c14                .real_start_ofpacketbuf_copyto_hdr
 .text.packetbuf_compact
                0x00404c48       0x7c contiki-OrisenStamp.a(packetbuf.o)
                0x00404c50                .real_start_ofpacketbuf_compact
                0x00404c48                packetbuf_compact
 .text.packetbuf_attr_clear
                0x00404cc4       0x60 contiki-OrisenStamp.a(packetbuf.o)
                0x00404ccc                .real_start_ofpacketbuf_attr_clear
                0x00404cc4                packetbuf_attr_clear
 .text.packetbuf_clear
                0x00404d24       0x4c contiki-OrisenStamp.a(packetbuf.o)
                0x00404d2c                .real_start_ofpacketbuf_clear
                0x00404d24                packetbuf_clear
 .text.packetbuf_copyfrom
                0x00404d70       0x50 contiki-OrisenStamp.a(packetbuf.o)
                0x00404d70                packetbuf_copyfrom
                0x00404d78                .real_start_ofpacketbuf_copyfrom
 .text.queuebuf_to_packetbuf
                0x00404dc0       0xa0 contiki-OrisenStamp.a(queuebuf.o)
                0x00404dc8                .real_start_ofqueuebuf_to_packetbuf
                0x00404dc0                queuebuf_to_packetbuf
 .text.queuebuf_free
                0x00404e60       0x6c contiki-OrisenStamp.a(queuebuf.o)
                0x00404e60                queuebuf_free
                0x00404e68                .real_start_ofqueuebuf_free
 .text.queuebuf_update_attr_from_packetbuf
                0x00404ecc       0x28 contiki-OrisenStamp.a(queuebuf.o)
                0x00404ecc                queuebuf_update_attr_from_packetbuf
                0x00404ed4                .real_start_ofqueuebuf_update_attr_from_packetbuf
 .text.queuebuf_new_from_packetbuf
                0x00404ef4       0xb0 contiki-OrisenStamp.a(queuebuf.o)
                0x00404ef4                queuebuf_new_from_packetbuf
                0x00404efc                .real_start_ofqueuebuf_new_from_packetbuf
 .text.queuebuf_init
                0x00404fa4       0x38 contiki-OrisenStamp.a(queuebuf.o)
                0x00404fa4                queuebuf_init
                0x00404fac                .real_start_ofqueuebuf_init
 .text.packetqueue_queuebuf
                0x00404fdc       0x14 contiki-OrisenStamp.a(packetqueue.o)
                0x00404fdc                packetqueue_queuebuf
                0x00404fe4                .real_start_ofpacketqueue_queuebuf
 .text.packetqueue_len
                0x00404ff0       0x24 contiki-OrisenStamp.a(packetqueue.o)
                0x00404ff0                packetqueue_len
                0x00404ff8                .real_start_ofpacketqueue_len
 .text.packetqueue_first
                0x00405014       0x24 contiki-OrisenStamp.a(packetqueue.o)
                0x00405014                packetqueue_first
                0x0040501c                .real_start_ofpacketqueue_first
 .text.packetqueue_dequeue
                0x00405038       0x64 contiki-OrisenStamp.a(packetqueue.o)
                0x00405038                packetqueue_dequeue
                0x00405040                .real_start_ofpacketqueue_dequeue
 .text.remove_queued_packet
                0x0040509c       0x48 contiki-OrisenStamp.a(packetqueue.o)
 .text.packetqueue_enqueue_packetbuf
                0x004050e4       0x80 contiki-OrisenStamp.a(packetqueue.o)
                0x004050ec                .real_start_ofpacketqueue_enqueue_packetbuf
                0x004050e4                packetqueue_enqueue_packetbuf
 .text.clock_init
                0x00405164       0x50 contiki-OrisenStamp.a(clock.o)
                0x00405164                clock_init
                0x0040516c                .real_start_ofclock_init
 .text.clock_time
                0x004051b4       0x14 contiki-OrisenStamp.a(clock.o)
                0x004051bc                .real_start_ofclock_time
                0x004051b4                clock_time
 .text.clock_seconds
                0x004051c8       0x14 contiki-OrisenStamp.a(clock.o)
                0x004051c8                clock_seconds
                0x004051d0                .real_start_ofclock_seconds
 .text.clock_delay_usec
                0x004051dc       0x44 contiki-OrisenStamp.a(clock.o)
                0x004051dc                clock_delay_usec
                0x004051e4                .real_start_ofclock_delay_usec
 .text.clock_delay_msec
                0x00405220       0x30 contiki-OrisenStamp.a(clock.o)
                0x00405220                clock_delay_msec
                0x00405228                .real_start_ofclock_delay_msec
 .text.tmr0_isr
                0x00405250       0xa0 contiki-OrisenStamp.a(clock.o)
                0x00405258                .real_start_oftmr0_isr
                0x00405250                tmr0_isr
 .text.status   0x004052f0       0x1c contiki-OrisenStamp.a(button-sensor.o)
 .text.configure
                0x0040530c       0x4c contiki-OrisenStamp.a(button-sensor.o)
 .text.value    0x00405358       0x30 contiki-OrisenStamp.a(button-sensor.o)
 .text.kbi4_isr
                0x00405388       0x34 contiki-OrisenStamp.a(button-sensor.o)
                0x00405388                kbi4_isr
                0x00405390                .real_start_ofkbi4_isr
 .text.get_sensor_index
                0x004053bc       0x28 contiki-OrisenStamp.a(sensors.o)
 .text.process_thread_sensors_process
                0x004053e4       0xec contiki-OrisenStamp.a(sensors.o)
 .text.sensors_changed
                0x004054d0       0x40 contiki-OrisenStamp.a(sensors.o)
                0x004054d8                .real_start_ofsensors_changed
                0x004054d0                sensors_changed
 .text.M41T62_writeRegN
                0x00405510       0x30 contiki-OrisenStamp.a(RTC.o)
                0x00405518                .real_start_ofM41T62_writeRegN
                0x00405510                M41T62_writeRegN
 .text.M41T62_writeReg
                0x00405540       0x58 contiki-OrisenStamp.a(RTC.o)
                0x00405548                .real_start_ofM41T62_writeReg
                0x00405540                M41T62_writeReg
 .text.M41T62_readRegN
                0x00405598       0x58 contiki-OrisenStamp.a(RTC.o)
                0x00405598                M41T62_readRegN
                0x004055a0                .real_start_ofM41T62_readRegN
 .text.RTC_resetRegisters
                0x004055f0       0x74 contiki-OrisenStamp.a(RTC.o)
                0x004055f8                .real_start_ofRTC_resetRegisters
                0x004055f0                RTC_resetRegisters
 .text.M41T62_readReg
                0x00405664       0x58 contiki-OrisenStamp.a(RTC.o)
                0x00405664                M41T62_readReg
                0x0040566c                .real_start_ofM41T62_readReg
 .text.process_thread_RTC_process
                0x004056bc       0x7c contiki-OrisenStamp.a(RTC.o)
 .text.RTC_start
                0x00405738       0x40 contiki-OrisenStamp.a(RTC.o)
                0x00405738                RTC_start
                0x00405740                .real_start_ofRTC_start
 .text.RTC_stop
                0x00405778       0x44 contiki-OrisenStamp.a(RTC.o)
                0x00405780                .real_start_ofRTC_stop
                0x00405778                RTC_stop
 .text.kbi5_isr
                0x004057bc       0x34 contiki-OrisenStamp.a(RTC.o)
                0x004057bc                kbi5_isr
                0x004057c4                .real_start_ofkbi5_isr
 .text.RTC_init
                0x004057f0       0xc0 contiki-OrisenStamp.a(RTC.o)
                0x004057f0                RTC_init
                0x004057f8                .real_start_ofRTC_init
 .text.kbi_event_init
                0x004058b0       0xcc contiki-OrisenStamp.a(kbi_events.o)
                0x004058b0                kbi_event_init
                0x004058b8                .real_start_ofkbi_event_init
 .text.process_thread_kbi_event_process
                0x0040597c       0xa4 contiki-OrisenStamp.a(kbi_events.o)
 .text.kbi7_isr
                0x00405a20       0x3c contiki-OrisenStamp.a(kbi_events.o)
                0x00405a20                kbi7_isr
                0x00405a28                .real_start_ofkbi7_isr
 .text.kbi6_isr
                0x00405a5c       0x3c contiki-OrisenStamp.a(kbi_events.o)
                0x00405a64                .real_start_ofkbi6_isr
                0x00405a5c                kbi6_isr
 .text.ioPins_configurePin
                0x00405a98      0x5d4 contiki-OrisenStamp.a(io-pins.o)
                0x00405aa0                .real_start_ofioPins_configurePin
                0x00405a98                ioPins_configurePin
 .text.ioPins_init
                0x0040606c       0x78 contiki-OrisenStamp.a(io-pins.o)
                0x0040606c                ioPins_init
                0x00406074                .real_start_ofioPins_init
 .text.cal_ring_osc
                0x004060e4       0x6c contiki-OrisenStamp.a(contiki-crm.o)
                0x004060e4                cal_ring_osc
                0x004060ec                .real_start_ofcal_ring_osc
 .text.packetbuf_set_attr
                0x00406150       0x10 contiki-OrisenStamp.a(contiki-maca.o)
 .text.contiki_maca_init
                0x00406160        0xc contiki-OrisenStamp.a(contiki-maca.o)
                0x00406168                .real_start_ofcontiki_maca_init
                0x00406160                contiki_maca_init
 .text.contiki_maca_channel_clear
                0x0040616c        0xc contiki-OrisenStamp.a(contiki-maca.o)
                0x00406174                .real_start_ofcontiki_maca_channel_clear
                0x0040616c                contiki_maca_channel_clear
 .text.contiki_maca_receiving_packet
                0x00406178        0xc contiki-OrisenStamp.a(contiki-maca.o)
                0x00406178                contiki_maca_receiving_packet
                0x00406180                .real_start_ofcontiki_maca_receiving_packet
 .text.contiki_maca_pending_packet
                0x00406184       0x18 contiki-OrisenStamp.a(contiki-maca.o)
                0x0040618c                .real_start_ofcontiki_maca_pending_packet
                0x00406184                contiki_maca_pending_packet
 .text.contiki_maca_on_request
                0x0040619c       0x20 contiki-OrisenStamp.a(contiki-maca.o)
                0x004061a4                .real_start_ofcontiki_maca_on_request
                0x0040619c                contiki_maca_on_request
 .text.contiki_maca_off_request
                0x004061bc       0x20 contiki-OrisenStamp.a(contiki-maca.o)
                0x004061bc                contiki_maca_off_request
                0x004061c4                .real_start_ofcontiki_maca_off_request
 .text.maca_rx_callback
                0x004061dc       0x24 contiki-OrisenStamp.a(contiki-maca.o)
                0x004061dc                maca_rx_callback
                0x004061e4                .real_start_ofmaca_rx_callback
 .text.contiki_maca_prepare
                0x00406200       0x44 contiki-OrisenStamp.a(contiki-maca.o)
                0x00406208                .real_start_ofcontiki_maca_prepare
                0x00406200                contiki_maca_prepare
 .text.contiki_maca_transmit
                0x00406244       0x58 contiki-OrisenStamp.a(contiki-maca.o)
                0x00406244                contiki_maca_transmit
                0x0040624c                .real_start_ofcontiki_maca_transmit
 .text.contiki_maca_send
                0x0040629c       0x4c contiki-OrisenStamp.a(contiki-maca.o)
                0x004062a4                .real_start_ofcontiki_maca_send
                0x0040629c                contiki_maca_send
 .text.contiki_maca_read
                0x004062e8       0x74 contiki-OrisenStamp.a(contiki-maca.o)
                0x004062f0                .real_start_ofcontiki_maca_read
                0x004062e8                contiki_maca_read
 .text.process_thread_contiki_maca_process
                0x0040635c       0xb4 contiki-OrisenStamp.a(contiki-maca.o)
 .text.rand     0x00406410       0x14 contiki-OrisenStamp.a(contiki-misc.o)
                0x00406410                rand
                0x00406418                .real_start_ofrand
 .text._sbrk    0x00406424       0x40 contiki-OrisenStamp.a(contiki-misc.o)
                0x00406424                _sbrk
                0x0040642c                .real_start_of_sbrk
 .text.show_leds
                0x00406464       0x28 contiki-OrisenStamp.a(leds.o)
 .text.leds_off
                0x0040648c       0x30 contiki-OrisenStamp.a(leds.o)
                0x0040648c                leds_off
                0x00406494                .real_start_ofleds_off
 .text.leds_on  0x004064bc       0x30 contiki-OrisenStamp.a(leds.o)
                0x004064bc                leds_on
                0x004064c4                .real_start_ofleds_on
 .text.leds_init
                0x004064ec       0x30 contiki-OrisenStamp.a(leds.o)
                0x004064f4                .real_start_ofleds_init
                0x004064ec                leds_init
 .text.uart1_set_input
                0x0040651c       0x14 contiki-OrisenStamp.a(contiki-uart.o)
                0x00406524                .real_start_ofuart1_set_input
                0x0040651c                uart1_set_input
 .text.printf   0x00406530       0x34 contiki-OrisenStamp.a(dbg-printf.o)
                0x00406530                printf
                0x00406538                .real_start_ofprintf
 .text.write_str
                0x00406564       0x20 contiki-OrisenStamp.a(dbg-printf.o)
 .text.sprintf  0x00406584       0x44 contiki-OrisenStamp.a(dbg-sprintf.o)
                0x0040658c                .real_start_ofsprintf
                0x00406584                sprintf
 .text.buffer_str
                0x004065c8       0x24 contiki-OrisenStamp.a(dbg-sprintf.o)
 .text.parse_uint
                0x004065ec       0x28 contiki-OrisenStamp.a(strformat.o)
 .text.output_uint_hex
                0x00406614       0x48 contiki-OrisenStamp.a(strformat.o)
 .text.fill_space
                0x0040665c       0x40 contiki-OrisenStamp.a(strformat.o)
 .text.format_str_v
                0x0040669c      0x760 contiki-OrisenStamp.a(strformat.o)
                0x0040669c                format_str_v
                0x004066a4                .real_start_offormat_str_v
 .text.adc_init
                0x00406dfc       0x8c contiki-OrisenStamp.a(adc.o)
                0x00406e04                .real_start_ofadc_init
                0x00406dfc                adc_init
 .text.gpio_data_get
                0x00406e88       0x34 contiki-OrisenStamp.a(gpio.o)
                0x00406e88                gpio_data_get
                0x00406e90                .real_start_ofgpio_data_get
 .text.gpio_select_function
                0x00406ebc       0x30 contiki-OrisenStamp.a(gpio-util.o)
                0x00406ec4                .real_start_ofgpio_select_function
                0x00406ebc                gpio_select_function
 .text.gpio_reg_set
                0x00406eec       0x20 contiki-OrisenStamp.a(gpio-util.o)
                0x00406eec                gpio_reg_set
                0x00406ef4                .real_start_ofgpio_reg_set
 .text.gpio_reg_clear
                0x00406f0c       0x20 contiki-OrisenStamp.a(gpio-util.o)
                0x00406f14                .real_start_ofgpio_reg_clear
                0x00406f0c                gpio_reg_clear
 .text.gpio_set_pad_dir
                0x00406f2c       0x44 contiki-OrisenStamp.a(gpio-util.o)
                0x00406f2c                gpio_set_pad_dir
                0x00406f34                .real_start_ofgpio_set_pad_dir
 .text.i2c_force_reset
                0x00406f70       0x24 contiki-OrisenStamp.a(i2c.o)
                0x00406f78                .real_start_ofi2c_force_reset
                0x00406f70                i2c_force_reset
 .text.i2c_busy
                0x00406f94       0x1c contiki-OrisenStamp.a(i2c.o)
                0x00406f94                i2c_busy
                0x00406f9c                .real_start_ofi2c_busy
 .text.i2c_transferred
                0x00406fb0       0x50 contiki-OrisenStamp.a(i2c.o)
                0x00406fb0                i2c_transferred
                0x00406fb8                .real_start_ofi2c_transferred
 .text.i2c_enable
                0x00407000       0x64 contiki-OrisenStamp.a(i2c.o)
                0x00407008                .real_start_ofi2c_enable
                0x00407000                i2c_enable
 .text.i2c_isr  0x00407064      0x114 contiki-OrisenStamp.a(i2c.o)
                0x0040706c                .real_start_ofi2c_isr
                0x00407064                i2c_isr
 .text.i2c_transmitinit
                0x00407178       0xc4 contiki-OrisenStamp.a(i2c.o)
                0x00407178                i2c_transmitinit
                0x00407180                .real_start_ofi2c_transmitinit
 .text.i2c_receiveinit
                0x0040723c       0xd0 contiki-OrisenStamp.a(i2c.o)
                0x0040723c                i2c_receiveinit
                0x00407244                .real_start_ofi2c_receiveinit
 .text.free_packet
                0x0040730c       0x64 contiki-OrisenStamp.a(maca.o)
                0x0040730c                free_packet
                0x00407314                .real_start_offree_packet
 .text.get_free_packet
                0x00407370       0x54 contiki-OrisenStamp.a(maca.o)
                0x00407370                get_free_packet
                0x00407378                .real_start_ofget_free_packet
 .text.post_receive
                0x004073c4       0xbc contiki-OrisenStamp.a(maca.o)
                0x004073c4                post_receive
                0x004073cc                .real_start_ofpost_receive
 .text.rx_packet
                0x00407480       0x54 contiki-OrisenStamp.a(maca.o)
                0x00407488                .real_start_ofrx_packet
                0x00407480                rx_packet
 .text.post_tx  0x004074d4       0xdc contiki-OrisenStamp.a(maca.o)
                0x004074d4                post_tx
                0x004074dc                .real_start_ofpost_tx
 .text.tx_packet
                0x004075b0       0x98 contiki-OrisenStamp.a(maca.o)
                0x004075b8                .real_start_oftx_packet
                0x004075b0                tx_packet
 .text.free_all_packets
                0x00407648       0x94 contiki-OrisenStamp.a(maca.o)
                0x00407650                .real_start_offree_all_packets
                0x00407648                free_all_packets
 .text.free_tx_head
                0x004076dc       0x64 contiki-OrisenStamp.a(maca.o)
                0x004076dc                free_tx_head
                0x004076e4                .real_start_offree_tx_head
 .text.add_to_rx
                0x00407740       0x70 contiki-OrisenStamp.a(maca.o)
                0x00407748                .real_start_ofadd_to_rx
                0x00407740                add_to_rx
 .text.insert_at_rx_head
                0x004077b0       0x70 contiki-OrisenStamp.a(maca.o)
                0x004077b8                .real_start_ofinsert_at_rx_head
                0x004077b0                insert_at_rx_head
 .text.init_phy
                0x00407820       0x68 contiki-OrisenStamp.a(maca.o)
                0x00407828                .real_start_ofinit_phy
                0x00407820                init_phy
 .text.reset_maca
                0x00407888       0x5c contiki-OrisenStamp.a(maca.o)
                0x00407888                reset_maca
                0x00407890                .real_start_ofreset_maca
 .text.flyback_init
                0x004078e4       0x3c contiki-OrisenStamp.a(maca.o)
                0x004078e4                flyback_init
                0x004078ec                .real_start_offlyback_init
 .text.get_ctov
                0x00407920       0x24 contiki-OrisenStamp.a(maca.o)
                0x00407928                .real_start_ofget_ctov
                0x00407920                get_ctov
 .text.set_power
                0x00407944       0x78 contiki-OrisenStamp.a(maca.o)
                0x00407944                set_power
                0x0040794c                .real_start_ofset_power
 .text.set_channel
                0x004079bc       0xc8 contiki-OrisenStamp.a(maca.o)
                0x004079bc                set_channel
                0x004079c4                .real_start_ofset_channel
 .text.exec_init_entry
                0x00407a84       0x88 contiki-OrisenStamp.a(maca.o)
                0x00407a84                exec_init_entry
                0x00407a8c                .real_start_ofexec_init_entry
 .text.init_from_flash
                0x00407b0c       0xe0 contiki-OrisenStamp.a(maca.o)
                0x00407b14                .real_start_ofinit_from_flash
                0x00407b0c                init_from_flash
 .text.radio_init
                0x00407bec      0x218 contiki-OrisenStamp.a(maca.o)
                0x00407bf4                .real_start_ofradio_init
                0x00407bec                radio_init
 .text.maca_init
                0x00407e04       0xbc contiki-OrisenStamp.a(maca.o)
                0x00407e0c                .real_start_ofmaca_init
                0x00407e04                maca_init
 .text.ResumeMACASync
                0x00407ec0       0xe0 contiki-OrisenStamp.a(maca.o)
                0x00407ec0                ResumeMACASync
                0x00407ec8                .real_start_ofResumeMACASync
 .text.decode_status
                0x00407fa0       0x48 contiki-OrisenStamp.a(maca.o)
                0x00407fa0                decode_status
                0x00407fa8                .real_start_ofdecode_status
 .text.check_maca
                0x00407fe8       0xc8 contiki-OrisenStamp.a(maca.o)
                0x00407fe8                check_maca
                0x00407ff0                .real_start_ofcheck_maca
 .text.maca_isr
                0x004080b0      0x1dc contiki-OrisenStamp.a(maca.o)
                0x004080b8                .real_start_ofmaca_isr
                0x004080b0                maca_isr
 .text.uart1_isr
                0x0040828c       0xc8 contiki-OrisenStamp.a(uart1.o)
                0x0040828c                uart1_isr
                0x00408294                .real_start_ofuart1_isr
 .text.uart1_putc
                0x00408354       0xa8 contiki-OrisenStamp.a(uart1.o)
                0x0040835c                .real_start_ofuart1_putc
                0x00408354                uart1_putc
 .text.uart1_getc
                0x004083fc       0x64 contiki-OrisenStamp.a(uart1.o)
                0x004083fc                uart1_getc
                0x00408404                .real_start_ofuart1_getc
 .text.uart2_isr
                0x00408460       0xc8 contiki-OrisenStamp.a(uart2.o)
                0x00408460                uart2_isr
                0x00408468                .real_start_ofuart2_isr
 .text.uart2_getc
                0x00408528       0x64 contiki-OrisenStamp.a(uart2.o)
                0x00408528                uart2_getc
                0x00408530                .real_start_ofuart2_getc
 .text.default_vreg_init
                0x0040858c       0x4c contiki-OrisenStamp.a(default_lowleve)
                0x00408594                .real_start_ofdefault_vreg_init
                0x0040858c                default_vreg_init
 .text.uart1_init
                0x004085d8       0xdc contiki-OrisenStamp.a(default_lowleve)
                0x004085d8                uart1_init
                0x004085e0                .real_start_ofuart1_init
 .text.uart2_init
                0x004086b4       0xd0 contiki-OrisenStamp.a(default_lowleve)
                0x004086b4                uart2_init
                0x004086bc                .real_start_ofuart2_init
 .text.sent_by_broadcast
                0x00408784       0x18 contiki-OrisenStamp.a(unicast.o)
 .text.unicast_send
                0x0040879c       0x34 contiki-OrisenStamp.a(unicast.o)
                0x0040879c                unicast_send
                0x004087a4                .real_start_ofunicast_send
 .text.unicast_open
                0x004087d0       0x40 contiki-OrisenStamp.a(unicast.o)
                0x004087d0                unicast_open
                0x004087d8                .real_start_ofunicast_open
 .text.recv_from_broadcast
                0x00408810       0x38 contiki-OrisenStamp.a(unicast.o)
 .text.addr_len
                0x00408848       0x18 contiki-OrisenStamp.a(frame802154.o)
 .text.frame802154_parse
                0x00408860      0x14c contiki-OrisenStamp.a(frame802154.o)
                0x00408868                .real_start_offrame802154_parse
                0x00408860                frame802154_parse
 .text.field_len
                0x004089ac       0x74 contiki-OrisenStamp.a(frame802154.o)
 .text.frame802154_create
                0x00408a20      0x114 contiki-OrisenStamp.a(frame802154.o)
                0x00408a20                frame802154_create
                0x00408a28                .real_start_offrame802154_create
 .text.frame802154_hdrlen
                0x00408b34       0x40 contiki-OrisenStamp.a(frame802154.o)
                0x00408b34                frame802154_hdrlen
                0x00408b3c                .real_start_offrame802154_hdrlen
 .text.dbg_send_bytes
                0x00408b74       0x3c contiki-OrisenStamp.a(debug-uart.o)
                0x00408b74                dbg_send_bytes
                0x00408b7c                .real_start_ofdbg_send_bytes
 .text.leds_arch_set
                0x00408bb0       0x54 contiki-OrisenStamp.a(leds-arch.o)
                0x00408bb8                .real_start_ofleds_arch_set
                0x00408bb0                leds_arch_set
 .text.leds_arch_init
                0x00408c04       0x68 contiki-OrisenStamp.a(leds-arch.o)
                0x00408c04                leds_arch_init
                0x00408c0c                .real_start_ofleds_arch_init
 .text          0x00408c6c      0x114 /home/user/CodeSourcery/Sourcery_G++_Lite/bin/../lib/gcc/arm-none-eabi/4.3.2/libgcc.a(_udivsi3.o)
                0x00408c6c                __udivsi3
                0x00408c6c                __aeabi_uidiv
                0x00408d60                __aeabi_uidivmod
 .text          0x00408d80      0x148 /home/user/CodeSourcery/Sourcery_G++_Lite/bin/../lib/gcc/arm-none-eabi/4.3.2/libgcc.a(_divsi3.o)
                0x00408d80                __aeabi_idiv
                0x00408d80                __divsi3
                0x00408ea8                __aeabi_idivmod
 .text          0x00408ec8        0x4 /home/user/CodeSourcery/Sourcery_G++_Lite/bin/../lib/gcc/arm-none-eabi/4.3.2/libgcc.a(_dvmd_tls.o)
                0x00408ec8                __aeabi_ldiv0
                0x00408ec8                __aeabi_idiv0
 .text          0x00408ecc       0x3c /home/user/CodeSourcery/Sourcery_G++_Lite/bin/../lib/gcc/arm-none-eabi/4.3.2/libgcc.a(_aeabi_uldivmod.o)
                0x00408ecc                __aeabi_uldivmod
 .text          0x00408f08       0x80 /home/user/CodeSourcery/Sourcery_G++_Lite/bin/../lib/gcc/arm-none-eabi/4.3.2/libgcc.a(bpabi.o)
                0x00408f08                __gnu_uldivmod_helper
                0x00408f48                __gnu_ldivmod_helper
 .text          0x00408f88      0x56c /home/user/CodeSourcery/Sourcery_G++_Lite/bin/../lib/gcc/arm-none-eabi/4.3.2/libgcc.a(_divdi3.o)
                0x00408f88                __divdi3
 .text          0x004094f4      0x4fc /home/user/CodeSourcery/Sourcery_G++_Lite/bin/../lib/gcc/arm-none-eabi/4.3.2/libgcc.a(_udivdi3.o)
                0x004094f4                __udivdi3
 .text          0x004099f0       0x40 /home/user/CodeSourcery/Sourcery_G++_Lite/bin/../lib/gcc/arm-none-eabi/4.3.2/../../../../arm-none-eabi/lib/libc.a(lib_a-malloc.o)
                0x00409a10                malloc
                0x004099f0                free
 .text          0x00409a30      0x72c /home/user/CodeSourcery/Sourcery_G++_Lite/bin/../lib/gcc/arm-none-eabi/4.3.2/../../../../arm-none-eabi/lib/libc.a(lib_a-mallocr.o)
                0x00409a30                _malloc_r
 .text          0x0040a15c       0xac /home/user/CodeSourcery/Sourcery_G++_Lite/bin/../lib/gcc/arm-none-eabi/4.3.2/../../../../arm-none-eabi/lib/libc.a(lib_a-memcmp.o)
                0x0040a15c                memcmp
 .text          0x0040a208       0xfc /home/user/CodeSourcery/Sourcery_G++_Lite/bin/../lib/gcc/arm-none-eabi/4.3.2/../../../../arm-none-eabi/lib/libc.a(lib_a-memcpy.o)
                0x0040a208                memcpy
 .text          0x0040a304       0xd0 /home/user/CodeSourcery/Sourcery_G++_Lite/bin/../lib/gcc/arm-none-eabi/4.3.2/../../../../arm-none-eabi/lib/libc.a(lib_a-memset.o)
                0x0040a304                memset
 .text          0x0040a3d4        0x8 /home/user/CodeSourcery/Sourcery_G++_Lite/bin/../lib/gcc/arm-none-eabi/4.3.2/../../../../arm-none-eabi/lib/libc.a(lib_a-mlock.o)
                0x0040a3d8                __malloc_unlock
                0x0040a3d4                __malloc_lock
 .text          0x0040a3dc       0x40 /home/user/CodeSourcery/Sourcery_G++_Lite/bin/../lib/gcc/arm-none-eabi/4.3.2/../../../../arm-none-eabi/lib/libc.a(lib_a-sbrkr.o)
                0x0040a3dc                _sbrk_r
 .text          0x0040a41c       0xa8 /home/user/CodeSourcery/Sourcery_G++_Lite/bin/../lib/gcc/arm-none-eabi/4.3.2/../../../../arm-none-eabi/lib/libc.a(lib_a-strcat.o)
                0x0040a41c                strcat
 .text          0x0040a4c4       0xb8 /home/user/CodeSourcery/Sourcery_G++_Lite/bin/../lib/gcc/arm-none-eabi/4.3.2/../../../../arm-none-eabi/lib/libc.a(lib_a-strcpy.o)
                0x0040a4c4                strcpy
 .text          0x0040a57c       0x9c /home/user/CodeSourcery/Sourcery_G++_Lite/bin/../lib/gcc/arm-none-eabi/4.3.2/../../../../arm-none-eabi/lib/libc.a(lib_a-strlen.o)
                0x0040a57c                strlen
 .text          0x0040a618      0x378 /home/user/CodeSourcery/Sourcery_G++_Lite/bin/../lib/gcc/arm-none-eabi/4.3.2/../../../../arm-none-eabi/lib/libc.a(lib_a-freer.o)
                0x0040a714                _free_r
                0x0040a618                _malloc_trim_r
 *(.gnu.warning)
 *(.glue_7t)
 .glue_7t       0x0040a990        0x0 syncSensor.co
 .glue_7t       0x0040a990        0x0 obj_OrisenStamp/contiki-stamp-main.o
 .glue_7t       0x0040a990        0x0 obj_OrisenStamp/start.o
 .glue_7t       0x0040a990        0x0 contiki-OrisenStamp.a(rimeaddr.o)
 .glue_7t       0x0040a990        0x0 contiki-OrisenStamp.a(rime.o)
 .glue_7t       0x0040a990        0x0 contiki-OrisenStamp.a(rimestats.o)
 .glue_7t       0x0040a990        0x0 contiki-OrisenStamp.a(announcement.o)
 .glue_7t       0x0040a990        0x0 contiki-OrisenStamp.a(broadcast-annou)
 .glue_7t       0x0040a990        0x0 contiki-OrisenStamp.a(broadcast.o)
 .glue_7t       0x0040a990        0x0 contiki-OrisenStamp.a(abc.o)
 .glue_7t       0x0040a990        0x0 contiki-OrisenStamp.a(collect.o)
 .glue_7t       0x0040a990        0x0 contiki-OrisenStamp.a(collect-neighbo)
 .glue_7t       0x0040a990        0x0 contiki-OrisenStamp.a(collect-link-es)
 .glue_7t       0x0040a990        0x0 contiki-OrisenStamp.a(chameleon.o)
 .glue_7t       0x0040a990        0x0 contiki-OrisenStamp.a(channel.o)
 .glue_7t       0x0040a990        0x0 contiki-OrisenStamp.a(chameleon-bitop)
 .glue_7t       0x0040a990        0x0 contiki-OrisenStamp.a(nullrdc.o)
 .glue_7t       0x0040a990        0x0 contiki-OrisenStamp.a(mac.o)
 .glue_7t       0x0040a990        0x0 contiki-OrisenStamp.a(framer-802154.o)
 .glue_7t       0x0040a990        0x0 contiki-OrisenStamp.a(csma.o)
 .glue_7t       0x0040a990        0x0 contiki-OrisenStamp.a(process.o)
 .glue_7t       0x0040a990        0x0 contiki-OrisenStamp.a(autostart.o)
 .glue_7t       0x0040a990        0x0 contiki-OrisenStamp.a(serial-line.o)
 .glue_7t       0x0040a990        0x0 contiki-OrisenStamp.a(memb.o)
 .glue_7t       0x0040a990        0x0 contiki-OrisenStamp.a(timer.o)
 .glue_7t       0x0040a990        0x0 contiki-OrisenStamp.a(list.o)
 .glue_7t       0x0040a990        0x0 contiki-OrisenStamp.a(etimer.o)
 .glue_7t       0x0040a990        0x0 contiki-OrisenStamp.a(ctimer.o)
 .glue_7t       0x0040a990        0x0 contiki-OrisenStamp.a(random.o)
 .glue_7t       0x0040a990        0x0 contiki-OrisenStamp.a(ringbuf.o)
 .glue_7t       0x0040a990        0x0 contiki-OrisenStamp.a(packetbuf.o)
 .glue_7t       0x0040a990        0x0 contiki-OrisenStamp.a(queuebuf.o)
 .glue_7t       0x0040a990        0x0 contiki-OrisenStamp.a(packetqueue.o)
 .glue_7t       0x0040a990        0x0 contiki-OrisenStamp.a(clock.o)
 .glue_7t       0x0040a990        0x0 contiki-OrisenStamp.a(button-sensor.o)
 .glue_7t       0x0040a990        0x0 contiki-OrisenStamp.a(sensors.o)
 .glue_7t       0x0040a990        0x0 contiki-OrisenStamp.a(RTC.o)
 .glue_7t       0x0040a990        0x0 contiki-OrisenStamp.a(kbi_events.o)
 .glue_7t       0x0040a990        0x0 contiki-OrisenStamp.a(io-pins.o)
 .glue_7t       0x0040a990        0x0 contiki-OrisenStamp.a(contiki-crm.o)
 .glue_7t       0x0040a990        0x0 contiki-OrisenStamp.a(contiki-maca.o)
 .glue_7t       0x0040a990        0x0 contiki-OrisenStamp.a(contiki-misc.o)
 .glue_7t       0x0040a990        0x0 contiki-OrisenStamp.a(leds.o)
 .glue_7t       0x0040a990        0x0 contiki-OrisenStamp.a(contiki-uart.o)
 .glue_7t       0x0040a990        0x0 contiki-OrisenStamp.a(dbg-printf.o)
 .glue_7t       0x0040a990        0x0 contiki-OrisenStamp.a(dbg-sprintf.o)
 .glue_7t       0x0040a990        0x0 contiki-OrisenStamp.a(strformat.o)
 .glue_7t       0x0040a990        0x0 contiki-OrisenStamp.a(adc.o)
 .glue_7t       0x0040a990        0x0 contiki-OrisenStamp.a(gpio.o)
 .glue_7t       0x0040a990        0x0 contiki-OrisenStamp.a(gpio-util.o)
 .glue_7t       0x0040a990        0x0 contiki-OrisenStamp.a(i2c.o)
 .glue_7t       0x0040a990        0x0 contiki-OrisenStamp.a(maca.o)
 .glue_7t       0x0040a990        0x0 contiki-OrisenStamp.a(nvm.o)
 .glue_7t       0x0040a990        0x0 contiki-OrisenStamp.a(uart1.o)
 .glue_7t       0x0040a990        0x0 contiki-OrisenStamp.a(uart2.o)
 .glue_7t       0x0040a990        0x0 contiki-OrisenStamp.a(default_lowleve)
 .glue_7t       0x0040a990        0x0 contiki-OrisenStamp.a(isr.o)
 .glue_7t       0x0040a990        0x0 contiki-OrisenStamp.a(unicast.o)
 .glue_7t       0x0040a990        0x0 contiki-OrisenStamp.a(frame802154.o)
 .glue_7t       0x0040a990        0x0 contiki-OrisenStamp.a(debug-uart.o)
 .glue_7t       0x0040a990        0x0 contiki-OrisenStamp.a(leds-arch.o)
 .glue_7t       0x0040a990        0x0 /home/user/CodeSourcery/Sourcery_G++_Lite/bin/../lib/gcc/arm-none-eabi/4.3.2/libgcc.a(_udivsi3.o)
 .glue_7t       0x0040a990        0x0 /home/user/CodeSourcery/Sourcery_G++_Lite/bin/../lib/gcc/arm-none-eabi/4.3.2/libgcc.a(_divsi3.o)
 .glue_7t       0x0040a990        0x0 /home/user/CodeSourcery/Sourcery_G++_Lite/bin/../lib/gcc/arm-none-eabi/4.3.2/libgcc.a(_dvmd_tls.o)
 .glue_7t       0x0040a990        0x0 /home/user/CodeSourcery/Sourcery_G++_Lite/bin/../lib/gcc/arm-none-eabi/4.3.2/libgcc.a(_aeabi_uldivmod.o)
 .glue_7t       0x0040a990        0x0 /home/user/CodeSourcery/Sourcery_G++_Lite/bin/../lib/gcc/arm-none-eabi/4.3.2/libgcc.a(bpabi.o)
 .glue_7t       0x0040a990        0x0 /home/user/CodeSourcery/Sourcery_G++_Lite/bin/../lib/gcc/arm-none-eabi/4.3.2/libgcc.a(_divdi3.o)
 .glue_7t       0x0040a990        0x0 /home/user/CodeSourcery/Sourcery_G++_Lite/bin/../lib/gcc/arm-none-eabi/4.3.2/libgcc.a(_udivdi3.o)
 .glue_7t       0x0040a990        0x0 /home/user/CodeSourcery/Sourcery_G++_Lite/bin/../lib/gcc/arm-none-eabi/4.3.2/libgcc.a(_clz.o)
 .glue_7t       0x0040a990        0x0 /home/user/CodeSourcery/Sourcery_G++_Lite/bin/../lib/gcc/arm-none-eabi/4.3.2/../../../../arm-none-eabi/lib/libc.a(lib_a-malloc.o)
 .glue_7t       0x0040a990        0x0 /home/user/CodeSourcery/Sourcery_G++_Lite/bin/../lib/gcc/arm-none-eabi/4.3.2/../../../../arm-none-eabi/lib/libc.a(lib_a-mallocr.o)
 .glue_7t       0x0040a990        0x0 /home/user/CodeSourcery/Sourcery_G++_Lite/bin/../lib/gcc/arm-none-eabi/4.3.2/../../../../arm-none-eabi/lib/libc.a(lib_a-memcmp.o)
 .glue_7t       0x0040a990        0x0 /home/user/CodeSourcery/Sourcery_G++_Lite/bin/../lib/gcc/arm-none-eabi/4.3.2/../../../../arm-none-eabi/lib/libc.a(lib_a-memcpy.o)
 .glue_7t       0x0040a990        0x0 /home/user/CodeSourcery/Sourcery_G++_Lite/bin/../lib/gcc/arm-none-eabi/4.3.2/../../../../arm-none-eabi/lib/libc.a(lib_a-memset.o)
 .glue_7t       0x0040a990        0x0 /home/user/CodeSourcery/Sourcery_G++_Lite/bin/../lib/gcc/arm-none-eabi/4.3.2/../../../../arm-none-eabi/lib/libc.a(lib_a-mlock.o)
 .glue_7t       0x0040a990        0x0 /home/user/CodeSourcery/Sourcery_G++_Lite/bin/../lib/gcc/arm-none-eabi/4.3.2/../../../../arm-none-eabi/lib/libc.a(lib_a-sbrkr.o)
 .glue_7t       0x0040a990        0x0 /home/user/CodeSourcery/Sourcery_G++_Lite/bin/../lib/gcc/arm-none-eabi/4.3.2/../../../../arm-none-eabi/lib/libc.a(lib_a-strcat.o)
 .glue_7t       0x0040a990        0x0 /home/user/CodeSourcery/Sourcery_G++_Lite/bin/../lib/gcc/arm-none-eabi/4.3.2/../../../../arm-none-eabi/lib/libc.a(lib_a-strcpy.o)
 .glue_7t       0x0040a990        0x0 /home/user/CodeSourcery/Sourcery_G++_Lite/bin/../lib/gcc/arm-none-eabi/4.3.2/../../../../arm-none-eabi/lib/libc.a(lib_a-strlen.o)
 .glue_7t       0x0040a990        0x0 /home/user/CodeSourcery/Sourcery_G++_Lite/bin/../lib/gcc/arm-none-eabi/4.3.2/../../../../arm-none-eabi/lib/libc.a(lib_a-strncmp.o)
 .glue_7t       0x0040a990        0x0 /home/user/CodeSourcery/Sourcery_G++_Lite/bin/../lib/gcc/arm-none-eabi/4.3.2/../../../../arm-none-eabi/lib/libc.a(lib_a-freer.o)
 .glue_7t       0x0040a990        0x0 /home/user/CodeSourcery/Sourcery_G++_Lite/bin/../lib/gcc/arm-none-eabi/4.3.2/../../../../arm-none-eabi/lib/libc.a(lib_a-impure.o)
 .glue_7t       0x0040a990        0x0 /home/user/CodeSourcery/Sourcery_G++_Lite/bin/../lib/gcc/arm-none-eabi/4.3.2/../../../../arm-none-eabi/lib/libc.a(lib_a-reent.o)
 *(.glue_7)
 .glue_7        0x0040a990        0x0 syncSensor.co
 .glue_7        0x0040a990        0x0 obj_OrisenStamp/contiki-stamp-main.o
 .glue_7        0x0040a990        0x0 obj_OrisenStamp/start.o
 .glue_7        0x0040a990        0x0 contiki-OrisenStamp.a(rimeaddr.o)
 .glue_7        0x0040a990        0x0 contiki-OrisenStamp.a(rime.o)
 .glue_7        0x0040a990        0x0 contiki-OrisenStamp.a(rimestats.o)
 .glue_7        0x0040a990        0x0 contiki-OrisenStamp.a(announcement.o)
 .glue_7        0x0040a990        0x0 contiki-OrisenStamp.a(broadcast-annou)
 .glue_7        0x0040a990        0x0 contiki-OrisenStamp.a(broadcast.o)
 .glue_7        0x0040a990        0x0 contiki-OrisenStamp.a(abc.o)
 .glue_7        0x0040a990        0x0 contiki-OrisenStamp.a(collect.o)
 .glue_7        0x0040a990        0x0 contiki-OrisenStamp.a(collect-neighbo)
 .glue_7        0x0040a990        0x0 contiki-OrisenStamp.a(collect-link-es)
 .glue_7        0x0040a990        0x0 contiki-OrisenStamp.a(chameleon.o)
 .glue_7        0x0040a990        0x0 contiki-OrisenStamp.a(channel.o)
 .glue_7        0x0040a990        0x0 contiki-OrisenStamp.a(chameleon-bitop)
 .glue_7        0x0040a990        0x0 contiki-OrisenStamp.a(nullrdc.o)
 .glue_7        0x0040a990        0x0 contiki-OrisenStamp.a(mac.o)
 .glue_7        0x0040a990        0x0 contiki-OrisenStamp.a(framer-802154.o)
 .glue_7        0x0040a990        0x0 contiki-OrisenStamp.a(csma.o)
 .glue_7        0x0040a990        0x0 contiki-OrisenStamp.a(process.o)
 .glue_7        0x0040a990        0x0 contiki-OrisenStamp.a(autostart.o)
 .glue_7        0x0040a990        0x0 contiki-OrisenStamp.a(serial-line.o)
 .glue_7        0x0040a990        0x0 contiki-OrisenStamp.a(memb.o)
 .glue_7        0x0040a990        0x0 contiki-OrisenStamp.a(timer.o)
 .glue_7        0x0040a990        0x0 contiki-OrisenStamp.a(list.o)
 .glue_7        0x0040a990        0x0 contiki-OrisenStamp.a(etimer.o)
 .glue_7        0x0040a990        0x0 contiki-OrisenStamp.a(ctimer.o)
 .glue_7        0x0040a990        0x0 contiki-OrisenStamp.a(random.o)
 .glue_7        0x0040a990        0x0 contiki-OrisenStamp.a(ringbuf.o)
 .glue_7        0x0040a990        0x0 contiki-OrisenStamp.a(packetbuf.o)
 .glue_7        0x0040a990        0x0 contiki-OrisenStamp.a(queuebuf.o)
 .glue_7        0x0040a990        0x0 contiki-OrisenStamp.a(packetqueue.o)
 .glue_7        0x0040a990        0x0 contiki-OrisenStamp.a(clock.o)
 .glue_7        0x0040a990        0x0 contiki-OrisenStamp.a(button-sensor.o)
 .glue_7        0x0040a990        0x0 contiki-OrisenStamp.a(sensors.o)
 .glue_7        0x0040a990        0x0 contiki-OrisenStamp.a(RTC.o)
 .glue_7        0x0040a990        0x0 contiki-OrisenStamp.a(kbi_events.o)
 .glue_7        0x0040a990        0x0 contiki-OrisenStamp.a(io-pins.o)
 .glue_7        0x0040a990        0x0 contiki-OrisenStamp.a(contiki-crm.o)
 .glue_7        0x0040a990        0x0 contiki-OrisenStamp.a(contiki-maca.o)
 .glue_7        0x0040a990        0x0 contiki-OrisenStamp.a(contiki-misc.o)
 .glue_7        0x0040a990        0x0 contiki-OrisenStamp.a(leds.o)
 .glue_7        0x0040a990        0x0 contiki-OrisenStamp.a(contiki-uart.o)
 .glue_7        0x0040a990        0x0 contiki-OrisenStamp.a(dbg-printf.o)
 .glue_7        0x0040a990        0x0 contiki-OrisenStamp.a(dbg-sprintf.o)
 .glue_7        0x0040a990        0x0 contiki-OrisenStamp.a(strformat.o)
 .glue_7        0x0040a990        0x0 contiki-OrisenStamp.a(adc.o)
 .glue_7        0x0040a990        0x0 contiki-OrisenStamp.a(gpio.o)
 .glue_7        0x0040a990        0x0 contiki-OrisenStamp.a(gpio-util.o)
 .glue_7        0x0040a990        0x0 contiki-OrisenStamp.a(i2c.o)
 .glue_7        0x0040a990        0x0 contiki-OrisenStamp.a(maca.o)
 .glue_7        0x0040a990        0x0 contiki-OrisenStamp.a(nvm.o)
 .glue_7        0x0040a990        0x0 contiki-OrisenStamp.a(uart1.o)
 .glue_7        0x0040a990        0x0 contiki-OrisenStamp.a(uart2.o)
 .glue_7        0x0040a990        0x0 contiki-OrisenStamp.a(default_lowleve)
 .glue_7        0x0040a990        0x0 contiki-OrisenStamp.a(isr.o)
 .glue_7        0x0040a990        0x0 contiki-OrisenStamp.a(unicast.o)
 .glue_7        0x0040a990        0x0 contiki-OrisenStamp.a(frame802154.o)
 .glue_7        0x0040a990        0x0 contiki-OrisenStamp.a(debug-uart.o)
 .glue_7        0x0040a990        0x0 contiki-OrisenStamp.a(leds-arch.o)
 .glue_7        0x0040a990        0x0 /home/user/CodeSourcery/Sourcery_G++_Lite/bin/../lib/gcc/arm-none-eabi/4.3.2/libgcc.a(_udivsi3.o)
 .glue_7        0x0040a990        0x0 /home/user/CodeSourcery/Sourcery_G++_Lite/bin/../lib/gcc/arm-none-eabi/4.3.2/libgcc.a(_divsi3.o)
 .glue_7        0x0040a990        0x0 /home/user/CodeSourcery/Sourcery_G++_Lite/bin/../lib/gcc/arm-none-eabi/4.3.2/libgcc.a(_dvmd_tls.o)
 .glue_7        0x0040a990        0x0 /home/user/CodeSourcery/Sourcery_G++_Lite/bin/../lib/gcc/arm-none-eabi/4.3.2/libgcc.a(_aeabi_uldivmod.o)
 .glue_7        0x0040a990        0x0 /home/user/CodeSourcery/Sourcery_G++_Lite/bin/../lib/gcc/arm-none-eabi/4.3.2/libgcc.a(bpabi.o)
 .glue_7        0x0040a990        0x0 /home/user/CodeSourcery/Sourcery_G++_Lite/bin/../lib/gcc/arm-none-eabi/4.3.2/libgcc.a(_divdi3.o)
 .glue_7        0x0040a990        0x0 /home/user/CodeSourcery/Sourcery_G++_Lite/bin/../lib/gcc/arm-none-eabi/4.3.2/libgcc.a(_udivdi3.o)
 .glue_7        0x0040a990        0x0 /home/user/CodeSourcery/Sourcery_G++_Lite/bin/../lib/gcc/arm-none-eabi/4.3.2/libgcc.a(_clz.o)
 .glue_7        0x0040a990        0x0 /home/user/CodeSourcery/Sourcery_G++_Lite/bin/../lib/gcc/arm-none-eabi/4.3.2/../../../../arm-none-eabi/lib/libc.a(lib_a-malloc.o)
 .glue_7        0x0040a990        0x0 /home/user/CodeSourcery/Sourcery_G++_Lite/bin/../lib/gcc/arm-none-eabi/4.3.2/../../../../arm-none-eabi/lib/libc.a(lib_a-mallocr.o)
 .glue_7        0x0040a990        0x0 /home/user/CodeSourcery/Sourcery_G++_Lite/bin/../lib/gcc/arm-none-eabi/4.3.2/../../../../arm-none-eabi/lib/libc.a(lib_a-memcmp.o)
 .glue_7        0x0040a990        0x0 /home/user/CodeSourcery/Sourcery_G++_Lite/bin/../lib/gcc/arm-none-eabi/4.3.2/../../../../arm-none-eabi/lib/libc.a(lib_a-memcpy.o)
 .glue_7        0x0040a990        0x0 /home/user/CodeSourcery/Sourcery_G++_Lite/bin/../lib/gcc/arm-none-eabi/4.3.2/../../../../arm-none-eabi/lib/libc.a(lib_a-memset.o)
 .glue_7        0x0040a990        0x0 /home/user/CodeSourcery/Sourcery_G++_Lite/bin/../lib/gcc/arm-none-eabi/4.3.2/../../../../arm-none-eabi/lib/libc.a(lib_a-mlock.o)
 .glue_7        0x0040a990        0x0 /home/user/CodeSourcery/Sourcery_G++_Lite/bin/../lib/gcc/arm-none-eabi/4.3.2/../../../../arm-none-eabi/lib/libc.a(lib_a-sbrkr.o)
 .glue_7        0x0040a990        0x0 /home/user/CodeSourcery/Sourcery_G++_Lite/bin/../lib/gcc/arm-none-eabi/4.3.2/../../../../arm-none-eabi/lib/libc.a(lib_a-strcat.o)
 .glue_7        0x0040a990        0x0 /home/user/CodeSourcery/Sourcery_G++_Lite/bin/../lib/gcc/arm-none-eabi/4.3.2/../../../../arm-none-eabi/lib/libc.a(lib_a-strcpy.o)
 .glue_7        0x0040a990        0x0 /home/user/CodeSourcery/Sourcery_G++_Lite/bin/../lib/gcc/arm-none-eabi/4.3.2/../../../../arm-none-eabi/lib/libc.a(lib_a-strlen.o)
 .glue_7        0x0040a990        0x0 /home/user/CodeSourcery/Sourcery_G++_Lite/bin/../lib/gcc/arm-none-eabi/4.3.2/../../../../arm-none-eabi/lib/libc.a(lib_a-strncmp.o)
 .glue_7        0x0040a990        0x0 /home/user/CodeSourcery/Sourcery_G++_Lite/bin/../lib/gcc/arm-none-eabi/4.3.2/../../../../arm-none-eabi/lib/libc.a(lib_a-freer.o)
 .glue_7        0x0040a990        0x0 /home/user/CodeSourcery/Sourcery_G++_Lite/bin/../lib/gcc/arm-none-eabi/4.3.2/../../../../arm-none-eabi/lib/libc.a(lib_a-impure.o)
 .glue_7        0x0040a990        0x0 /home/user/CodeSourcery/Sourcery_G++_Lite/bin/../lib/gcc/arm-none-eabi/4.3.2/../../../../arm-none-eabi/lib/libc.a(lib_a-reent.o)
 *(.vfp11_veneer)
 .vfp11_veneer  0x0040a990        0x0 syncSensor.co
 .vfp11_veneer  0x0040a990        0x0 obj_OrisenStamp/contiki-stamp-main.o
 .vfp11_veneer  0x0040a990        0x0 obj_OrisenStamp/start.o
 .vfp11_veneer  0x0040a990        0x0 contiki-OrisenStamp.a(rimeaddr.o)
 .vfp11_veneer  0x0040a990        0x0 contiki-OrisenStamp.a(rime.o)
 .vfp11_veneer  0x0040a990        0x0 contiki-OrisenStamp.a(rimestats.o)
 .vfp11_veneer  0x0040a990        0x0 contiki-OrisenStamp.a(announcement.o)
 .vfp11_veneer  0x0040a990        0x0 contiki-OrisenStamp.a(broadcast-annou)
 .vfp11_veneer  0x0040a990        0x0 contiki-OrisenStamp.a(broadcast.o)
 .vfp11_veneer  0x0040a990        0x0 contiki-OrisenStamp.a(abc.o)
 .vfp11_veneer  0x0040a990        0x0 contiki-OrisenStamp.a(collect.o)
 .vfp11_veneer  0x0040a990        0x0 contiki-OrisenStamp.a(collect-neighbo)
 .vfp11_veneer  0x0040a990        0x0 contiki-OrisenStamp.a(collect-link-es)
 .vfp11_veneer  0x0040a990        0x0 contiki-OrisenStamp.a(chameleon.o)
 .vfp11_veneer  0x0040a990        0x0 contiki-OrisenStamp.a(channel.o)
 .vfp11_veneer  0x0040a990        0x0 contiki-OrisenStamp.a(chameleon-bitop)
 .vfp11_veneer  0x0040a990        0x0 contiki-OrisenStamp.a(nullrdc.o)
 .vfp11_veneer  0x0040a990        0x0 contiki-OrisenStamp.a(mac.o)
 .vfp11_veneer  0x0040a990        0x0 contiki-OrisenStamp.a(framer-802154.o)
 .vfp11_veneer  0x0040a990        0x0 contiki-OrisenStamp.a(csma.o)
 .vfp11_veneer  0x0040a990        0x0 contiki-OrisenStamp.a(process.o)
 .vfp11_veneer  0x0040a990        0x0 contiki-OrisenStamp.a(autostart.o)
 .vfp11_veneer  0x0040a990        0x0 contiki-OrisenStamp.a(serial-line.o)
 .vfp11_veneer  0x0040a990        0x0 contiki-OrisenStamp.a(memb.o)
 .vfp11_veneer  0x0040a990        0x0 contiki-OrisenStamp.a(timer.o)
 .vfp11_veneer  0x0040a990        0x0 contiki-OrisenStamp.a(list.o)
 .vfp11_veneer  0x0040a990        0x0 contiki-OrisenStamp.a(etimer.o)
 .vfp11_veneer  0x0040a990        0x0 contiki-OrisenStamp.a(ctimer.o)
 .vfp11_veneer  0x0040a990        0x0 contiki-OrisenStamp.a(random.o)
 .vfp11_veneer  0x0040a990        0x0 contiki-OrisenStamp.a(ringbuf.o)
 .vfp11_veneer  0x0040a990        0x0 contiki-OrisenStamp.a(packetbuf.o)
 .vfp11_veneer  0x0040a990        0x0 contiki-OrisenStamp.a(queuebuf.o)
 .vfp11_veneer  0x0040a990        0x0 contiki-OrisenStamp.a(packetqueue.o)
 .vfp11_veneer  0x0040a990        0x0 contiki-OrisenStamp.a(clock.o)
 .vfp11_veneer  0x0040a990        0x0 contiki-OrisenStamp.a(button-sensor.o)
 .vfp11_veneer  0x0040a990        0x0 contiki-OrisenStamp.a(sensors.o)
 .vfp11_veneer  0x0040a990        0x0 contiki-OrisenStamp.a(RTC.o)
 .vfp11_veneer  0x0040a990        0x0 contiki-OrisenStamp.a(kbi_events.o)
 .vfp11_veneer  0x0040a990        0x0 contiki-OrisenStamp.a(io-pins.o)
 .vfp11_veneer  0x0040a990        0x0 contiki-OrisenStamp.a(contiki-crm.o)
 .vfp11_veneer  0x0040a990        0x0 contiki-OrisenStamp.a(contiki-maca.o)
 .vfp11_veneer  0x0040a990        0x0 contiki-OrisenStamp.a(contiki-misc.o)
 .vfp11_veneer  0x0040a990        0x0 contiki-OrisenStamp.a(leds.o)
 .vfp11_veneer  0x0040a990        0x0 contiki-OrisenStamp.a(contiki-uart.o)
 .vfp11_veneer  0x0040a990        0x0 contiki-OrisenStamp.a(dbg-printf.o)
 .vfp11_veneer  0x0040a990        0x0 contiki-OrisenStamp.a(dbg-sprintf.o)
 .vfp11_veneer  0x0040a990        0x0 contiki-OrisenStamp.a(strformat.o)
 .vfp11_veneer  0x0040a990        0x0 contiki-OrisenStamp.a(adc.o)
 .vfp11_veneer  0x0040a990        0x0 contiki-OrisenStamp.a(gpio.o)
 .vfp11_veneer  0x0040a990        0x0 contiki-OrisenStamp.a(gpio-util.o)
 .vfp11_veneer  0x0040a990        0x0 contiki-OrisenStamp.a(i2c.o)
 .vfp11_veneer  0x0040a990        0x0 contiki-OrisenStamp.a(maca.o)
 .vfp11_veneer  0x0040a990        0x0 contiki-OrisenStamp.a(nvm.o)
 .vfp11_veneer  0x0040a990        0x0 contiki-OrisenStamp.a(uart1.o)
 .vfp11_veneer  0x0040a990        0x0 contiki-OrisenStamp.a(uart2.o)
 .vfp11_veneer  0x0040a990        0x0 contiki-OrisenStamp.a(default_lowleve)
 .vfp11_veneer  0x0040a990        0x0 contiki-OrisenStamp.a(isr.o)
 .vfp11_veneer  0x0040a990        0x0 contiki-OrisenStamp.a(unicast.o)
 .vfp11_veneer  0x0040a990        0x0 contiki-OrisenStamp.a(frame802154.o)
 .vfp11_veneer  0x0040a990        0x0 contiki-OrisenStamp.a(debug-uart.o)
 .vfp11_veneer  0x0040a990        0x0 contiki-OrisenStamp.a(leds-arch.o)
 .vfp11_veneer  0x0040a990        0x0 /home/user/CodeSourcery/Sourcery_G++_Lite/bin/../lib/gcc/arm-none-eabi/4.3.2/libgcc.a(_udivsi3.o)
 .vfp11_veneer  0x0040a990        0x0 /home/user/CodeSourcery/Sourcery_G++_Lite/bin/../lib/gcc/arm-none-eabi/4.3.2/libgcc.a(_divsi3.o)
 .vfp11_veneer  0x0040a990        0x0 /home/user/CodeSourcery/Sourcery_G++_Lite/bin/../lib/gcc/arm-none-eabi/4.3.2/libgcc.a(_dvmd_tls.o)
 .vfp11_veneer  0x0040a990        0x0 /home/user/CodeSourcery/Sourcery_G++_Lite/bin/../lib/gcc/arm-none-eabi/4.3.2/libgcc.a(_aeabi_uldivmod.o)
 .vfp11_veneer  0x0040a990        0x0 /home/user/CodeSourcery/Sourcery_G++_Lite/bin/../lib/gcc/arm-none-eabi/4.3.2/libgcc.a(bpabi.o)
 .vfp11_veneer  0x0040a990        0x0 /home/user/CodeSourcery/Sourcery_G++_Lite/bin/../lib/gcc/arm-none-eabi/4.3.2/libgcc.a(_divdi3.o)
 .vfp11_veneer  0x0040a990        0x0 /home/user/CodeSourcery/Sourcery_G++_Lite/bin/../lib/gcc/arm-none-eabi/4.3.2/libgcc.a(_udivdi3.o)
 .vfp11_veneer  0x0040a990        0x0 /home/user/CodeSourcery/Sourcery_G++_Lite/bin/../lib/gcc/arm-none-eabi/4.3.2/libgcc.a(_clz.o)
 .vfp11_veneer  0x0040a990        0x0 /home/user/CodeSourcery/Sourcery_G++_Lite/bin/../lib/gcc/arm-none-eabi/4.3.2/../../../../arm-none-eabi/lib/libc.a(lib_a-malloc.o)
 .vfp11_veneer  0x0040a990        0x0 /home/user/CodeSourcery/Sourcery_G++_Lite/bin/../lib/gcc/arm-none-eabi/4.3.2/../../../../arm-none-eabi/lib/libc.a(lib_a-mallocr.o)
 .vfp11_veneer  0x0040a990        0x0 /home/user/CodeSourcery/Sourcery_G++_Lite/bin/../lib/gcc/arm-none-eabi/4.3.2/../../../../arm-none-eabi/lib/libc.a(lib_a-memcmp.o)
 .vfp11_veneer  0x0040a990        0x0 /home/user/CodeSourcery/Sourcery_G++_Lite/bin/../lib/gcc/arm-none-eabi/4.3.2/../../../../arm-none-eabi/lib/libc.a(lib_a-memcpy.o)
 .vfp11_veneer  0x0040a990        0x0 /home/user/CodeSourcery/Sourcery_G++_Lite/bin/../lib/gcc/arm-none-eabi/4.3.2/../../../../arm-none-eabi/lib/libc.a(lib_a-memset.o)
 .vfp11_veneer  0x0040a990        0x0 /home/user/CodeSourcery/Sourcery_G++_Lite/bin/../lib/gcc/arm-none-eabi/4.3.2/../../../../arm-none-eabi/lib/libc.a(lib_a-mlock.o)
 .vfp11_veneer  0x0040a990        0x0 /home/user/CodeSourcery/Sourcery_G++_Lite/bin/../lib/gcc/arm-none-eabi/4.3.2/../../../../arm-none-eabi/lib/libc.a(lib_a-sbrkr.o)
 .vfp11_veneer  0x0040a990        0x0 /home/user/CodeSourcery/Sourcery_G++_Lite/bin/../lib/gcc/arm-none-eabi/4.3.2/../../../../arm-none-eabi/lib/libc.a(lib_a-strcat.o)
 .vfp11_veneer  0x0040a990        0x0 /home/user/CodeSourcery/Sourcery_G++_Lite/bin/../lib/gcc/arm-none-eabi/4.3.2/../../../../arm-none-eabi/lib/libc.a(lib_a-strcpy.o)
 .vfp11_veneer  0x0040a990        0x0 /home/user/CodeSourcery/Sourcery_G++_Lite/bin/../lib/gcc/arm-none-eabi/4.3.2/../../../../arm-none-eabi/lib/libc.a(lib_a-strlen.o)
 .vfp11_veneer  0x0040a990        0x0 /home/user/CodeSourcery/Sourcery_G++_Lite/bin/../lib/gcc/arm-none-eabi/4.3.2/../../../../arm-none-eabi/lib/libc.a(lib_a-strncmp.o)
 .vfp11_veneer  0x0040a990        0x0 /home/user/CodeSourcery/Sourcery_G++_Lite/bin/../lib/gcc/arm-none-eabi/4.3.2/../../../../arm-none-eabi/lib/libc.a(lib_a-freer.o)
 .vfp11_veneer  0x0040a990        0x0 /home/user/CodeSourcery/Sourcery_G++_Lite/bin/../lib/gcc/arm-none-eabi/4.3.2/../../../../arm-none-eabi/lib/libc.a(lib_a-impure.o)
 .vfp11_veneer  0x0040a990        0x0 /home/user/CodeSourcery/Sourcery_G++_Lite/bin/../lib/gcc/arm-none-eabi/4.3.2/../../../../arm-none-eabi/lib/libc.a(lib_a-reent.o)
 *(.v4_bx)
 .v4_bx         0x0040a990        0x0 syncSensor.co
 .v4_bx         0x0040a990        0x0 obj_OrisenStamp/contiki-stamp-main.o
 .v4_bx         0x0040a990        0x0 obj_OrisenStamp/start.o
 .v4_bx         0x0040a990        0x0 contiki-OrisenStamp.a(rimeaddr.o)
 .v4_bx         0x0040a990        0x0 contiki-OrisenStamp.a(rime.o)
 .v4_bx         0x0040a990        0x0 contiki-OrisenStamp.a(rimestats.o)
 .v4_bx         0x0040a990        0x0 contiki-OrisenStamp.a(announcement.o)
 .v4_bx         0x0040a990        0x0 contiki-OrisenStamp.a(broadcast-annou)
 .v4_bx         0x0040a990        0x0 contiki-OrisenStamp.a(broadcast.o)
 .v4_bx         0x0040a990        0x0 contiki-OrisenStamp.a(abc.o)
 .v4_bx         0x0040a990        0x0 contiki-OrisenStamp.a(collect.o)
 .v4_bx         0x0040a990        0x0 contiki-OrisenStamp.a(collect-neighbo)
 .v4_bx         0x0040a990        0x0 contiki-OrisenStamp.a(collect-link-es)
 .v4_bx         0x0040a990        0x0 contiki-OrisenStamp.a(chameleon.o)
 .v4_bx         0x0040a990        0x0 contiki-OrisenStamp.a(channel.o)
 .v4_bx         0x0040a990        0x0 contiki-OrisenStamp.a(chameleon-bitop)
 .v4_bx         0x0040a990        0x0 contiki-OrisenStamp.a(nullrdc.o)
 .v4_bx         0x0040a990        0x0 contiki-OrisenStamp.a(mac.o)
 .v4_bx         0x0040a990        0x0 contiki-OrisenStamp.a(framer-802154.o)
 .v4_bx         0x0040a990        0x0 contiki-OrisenStamp.a(csma.o)
 .v4_bx         0x0040a990        0x0 contiki-OrisenStamp.a(process.o)
 .v4_bx         0x0040a990        0x0 contiki-OrisenStamp.a(autostart.o)
 .v4_bx         0x0040a990        0x0 contiki-OrisenStamp.a(serial-line.o)
 .v4_bx         0x0040a990        0x0 contiki-OrisenStamp.a(memb.o)
 .v4_bx         0x0040a990        0x0 contiki-OrisenStamp.a(timer.o)
 .v4_bx         0x0040a990        0x0 contiki-OrisenStamp.a(list.o)
 .v4_bx         0x0040a990        0x0 contiki-OrisenStamp.a(etimer.o)
 .v4_bx         0x0040a990        0x0 contiki-OrisenStamp.a(ctimer.o)
 .v4_bx         0x0040a990        0x0 contiki-OrisenStamp.a(random.o)
 .v4_bx         0x0040a990        0x0 contiki-OrisenStamp.a(ringbuf.o)
 .v4_bx         0x0040a990        0x0 contiki-OrisenStamp.a(packetbuf.o)
 .v4_bx         0x0040a990        0x0 contiki-OrisenStamp.a(queuebuf.o)
 .v4_bx         0x0040a990        0x0 contiki-OrisenStamp.a(packetqueue.o)
 .v4_bx         0x0040a990        0x0 contiki-OrisenStamp.a(clock.o)
 .v4_bx         0x0040a990        0x0 contiki-OrisenStamp.a(button-sensor.o)
 .v4_bx         0x0040a990        0x0 contiki-OrisenStamp.a(sensors.o)
 .v4_bx         0x0040a990        0x0 contiki-OrisenStamp.a(RTC.o)
 .v4_bx         0x0040a990        0x0 contiki-OrisenStamp.a(kbi_events.o)
 .v4_bx         0x0040a990        0x0 contiki-OrisenStamp.a(io-pins.o)
 .v4_bx         0x0040a990        0x0 contiki-OrisenStamp.a(contiki-crm.o)
 .v4_bx         0x0040a990        0x0 contiki-OrisenStamp.a(contiki-maca.o)
 .v4_bx         0x0040a990        0x0 contiki-OrisenStamp.a(contiki-misc.o)
 .v4_bx         0x0040a990        0x0 contiki-OrisenStamp.a(leds.o)
 .v4_bx         0x0040a990        0x0 contiki-OrisenStamp.a(contiki-uart.o)
 .v4_bx         0x0040a990        0x0 contiki-OrisenStamp.a(dbg-printf.o)
 .v4_bx         0x0040a990        0x0 contiki-OrisenStamp.a(dbg-sprintf.o)
 .v4_bx         0x0040a990        0x0 contiki-OrisenStamp.a(strformat.o)
 .v4_bx         0x0040a990        0x0 contiki-OrisenStamp.a(adc.o)
 .v4_bx         0x0040a990        0x0 contiki-OrisenStamp.a(gpio.o)
 .v4_bx         0x0040a990        0x0 contiki-OrisenStamp.a(gpio-util.o)
 .v4_bx         0x0040a990        0x0 contiki-OrisenStamp.a(i2c.o)
 .v4_bx         0x0040a990        0x0 contiki-OrisenStamp.a(maca.o)
 .v4_bx         0x0040a990        0x0 contiki-OrisenStamp.a(nvm.o)
 .v4_bx         0x0040a990        0x0 contiki-OrisenStamp.a(uart1.o)
 .v4_bx         0x0040a990        0x0 contiki-OrisenStamp.a(uart2.o)
 .v4_bx         0x0040a990        0x0 contiki-OrisenStamp.a(default_lowleve)
 .v4_bx         0x0040a990        0x0 contiki-OrisenStamp.a(isr.o)
 .v4_bx         0x0040a990        0x0 contiki-OrisenStamp.a(unicast.o)
 .v4_bx         0x0040a990        0x0 contiki-OrisenStamp.a(frame802154.o)
 .v4_bx         0x0040a990        0x0 contiki-OrisenStamp.a(debug-uart.o)
 .v4_bx         0x0040a990        0x0 contiki-OrisenStamp.a(leds-arch.o)
 .v4_bx         0x0040a990        0x0 /home/user/CodeSourcery/Sourcery_G++_Lite/bin/../lib/gcc/arm-none-eabi/4.3.2/libgcc.a(_udivsi3.o)
 .v4_bx         0x0040a990        0x0 /home/user/CodeSourcery/Sourcery_G++_Lite/bin/../lib/gcc/arm-none-eabi/4.3.2/libgcc.a(_divsi3.o)
 .v4_bx         0x0040a990        0x0 /home/user/CodeSourcery/Sourcery_G++_Lite/bin/../lib/gcc/arm-none-eabi/4.3.2/libgcc.a(_dvmd_tls.o)
 .v4_bx         0x0040a990        0x0 /home/user/CodeSourcery/Sourcery_G++_Lite/bin/../lib/gcc/arm-none-eabi/4.3.2/libgcc.a(_aeabi_uldivmod.o)
 .v4_bx         0x0040a990        0x0 /home/user/CodeSourcery/Sourcery_G++_Lite/bin/../lib/gcc/arm-none-eabi/4.3.2/libgcc.a(bpabi.o)
 .v4_bx         0x0040a990        0x0 /home/user/CodeSourcery/Sourcery_G++_Lite/bin/../lib/gcc/arm-none-eabi/4.3.2/libgcc.a(_divdi3.o)
 .v4_bx         0x0040a990        0x0 /home/user/CodeSourcery/Sourcery_G++_Lite/bin/../lib/gcc/arm-none-eabi/4.3.2/libgcc.a(_udivdi3.o)
 .v4_bx         0x0040a990        0x0 /home/user/CodeSourcery/Sourcery_G++_Lite/bin/../lib/gcc/arm-none-eabi/4.3.2/libgcc.a(_clz.o)
 .v4_bx         0x0040a990        0x0 /home/user/CodeSourcery/Sourcery_G++_Lite/bin/../lib/gcc/arm-none-eabi/4.3.2/../../../../arm-none-eabi/lib/libc.a(lib_a-malloc.o)
 .v4_bx         0x0040a990        0x0 /home/user/CodeSourcery/Sourcery_G++_Lite/bin/../lib/gcc/arm-none-eabi/4.3.2/../../../../arm-none-eabi/lib/libc.a(lib_a-mallocr.o)
 .v4_bx         0x0040a990        0x0 /home/user/CodeSourcery/Sourcery_G++_Lite/bin/../lib/gcc/arm-none-eabi/4.3.2/../../../../arm-none-eabi/lib/libc.a(lib_a-memcmp.o)
 .v4_bx         0x0040a990        0x0 /home/user/CodeSourcery/Sourcery_G++_Lite/bin/../lib/gcc/arm-none-eabi/4.3.2/../../../../arm-none-eabi/lib/libc.a(lib_a-memcpy.o)
 .v4_bx         0x0040a990        0x0 /home/user/CodeSourcery/Sourcery_G++_Lite/bin/../lib/gcc/arm-none-eabi/4.3.2/../../../../arm-none-eabi/lib/libc.a(lib_a-memset.o)
 .v4_bx         0x0040a990        0x0 /home/user/CodeSourcery/Sourcery_G++_Lite/bin/../lib/gcc/arm-none-eabi/4.3.2/../../../../arm-none-eabi/lib/libc.a(lib_a-mlock.o)
 .v4_bx         0x0040a990        0x0 /home/user/CodeSourcery/Sourcery_G++_Lite/bin/../lib/gcc/arm-none-eabi/4.3.2/../../../../arm-none-eabi/lib/libc.a(lib_a-sbrkr.o)
 .v4_bx         0x0040a990        0x0 /home/user/CodeSourcery/Sourcery_G++_Lite/bin/../lib/gcc/arm-none-eabi/4.3.2/../../../../arm-none-eabi/lib/libc.a(lib_a-strcat.o)
 .v4_bx         0x0040a990        0x0 /home/user/CodeSourcery/Sourcery_G++_Lite/bin/../lib/gcc/arm-none-eabi/4.3.2/../../../../arm-none-eabi/lib/libc.a(lib_a-strcpy.o)
 .v4_bx         0x0040a990        0x0 /home/user/CodeSourcery/Sourcery_G++_Lite/bin/../lib/gcc/arm-none-eabi/4.3.2/../../../../arm-none-eabi/lib/libc.a(lib_a-strlen.o)
 .v4_bx         0x0040a990        0x0 /home/user/CodeSourcery/Sourcery_G++_Lite/bin/../lib/gcc/arm-none-eabi/4.3.2/../../../../arm-none-eabi/lib/libc.a(lib_a-strncmp.o)
 .v4_bx         0x0040a990        0x0 /home/user/CodeSourcery/Sourcery_G++_Lite/bin/../lib/gcc/arm-none-eabi/4.3.2/../../../../arm-none-eabi/lib/libc.a(lib_a-freer.o)
 .v4_bx         0x0040a990        0x0 /home/user/CodeSourcery/Sourcery_G++_Lite/bin/../lib/gcc/arm-none-eabi/4.3.2/../../../../arm-none-eabi/lib/libc.a(lib_a-impure.o)
 .v4_bx         0x0040a990        0x0 /home/user/CodeSourcery/Sourcery_G++_Lite/bin/../lib/gcc/arm-none-eabi/4.3.2/../../../../arm-none-eabi/lib/libc.a(lib_a-reent.o)

.janus_2cc_veneer
                0x0040a990        0x0
 .janus_2cc_veneer
                0x0040a990        0x0 syncSensor.co
 .janus_2cc_veneer
                0x0040a990        0x0 obj_OrisenStamp/contiki-stamp-main.o
 .janus_2cc_veneer
                0x0040a990        0x0 obj_OrisenStamp/start.o
 .janus_2cc_veneer
                0x0040a990        0x0 contiki-OrisenStamp.a(rimeaddr.o)
 .janus_2cc_veneer
                0x0040a990        0x0 contiki-OrisenStamp.a(rime.o)
 .janus_2cc_veneer
                0x0040a990        0x0 contiki-OrisenStamp.a(rimestats.o)
 .janus_2cc_veneer
                0x0040a990        0x0 contiki-OrisenStamp.a(announcement.o)
 .janus_2cc_veneer
                0x0040a990        0x0 contiki-OrisenStamp.a(broadcast-annou)
 .janus_2cc_veneer
                0x0040a990        0x0 contiki-OrisenStamp.a(broadcast.o)
 .janus_2cc_veneer
                0x0040a990        0x0 contiki-OrisenStamp.a(abc.o)
 .janus_2cc_veneer
                0x0040a990        0x0 contiki-OrisenStamp.a(collect.o)
 .janus_2cc_veneer
                0x0040a990        0x0 contiki-OrisenStamp.a(collect-neighbo)
 .janus_2cc_veneer
                0x0040a990        0x0 contiki-OrisenStamp.a(collect-link-es)
 .janus_2cc_veneer
                0x0040a990        0x0 contiki-OrisenStamp.a(chameleon.o)
 .janus_2cc_veneer
                0x0040a990        0x0 contiki-OrisenStamp.a(channel.o)
 .janus_2cc_veneer
                0x0040a990        0x0 contiki-OrisenStamp.a(chameleon-bitop)
 .janus_2cc_veneer
                0x0040a990        0x0 contiki-OrisenStamp.a(nullrdc.o)
 .janus_2cc_veneer
                0x0040a990        0x0 contiki-OrisenStamp.a(mac.o)
 .janus_2cc_veneer
                0x0040a990        0x0 contiki-OrisenStamp.a(framer-802154.o)
 .janus_2cc_veneer
                0x0040a990        0x0 contiki-OrisenStamp.a(csma.o)
 .janus_2cc_veneer
                0x0040a990        0x0 contiki-OrisenStamp.a(process.o)
 .janus_2cc_veneer
                0x0040a990        0x0 contiki-OrisenStamp.a(autostart.o)
 .janus_2cc_veneer
                0x0040a990        0x0 contiki-OrisenStamp.a(serial-line.o)
 .janus_2cc_veneer
                0x0040a990        0x0 contiki-OrisenStamp.a(memb.o)
 .janus_2cc_veneer
                0x0040a990        0x0 contiki-OrisenStamp.a(timer.o)
 .janus_2cc_veneer
                0x0040a990        0x0 contiki-OrisenStamp.a(list.o)
 .janus_2cc_veneer
                0x0040a990        0x0 contiki-OrisenStamp.a(etimer.o)
 .janus_2cc_veneer
                0x0040a990        0x0 contiki-OrisenStamp.a(ctimer.o)
 .janus_2cc_veneer
                0x0040a990        0x0 contiki-OrisenStamp.a(random.o)
 .janus_2cc_veneer
                0x0040a990        0x0 contiki-OrisenStamp.a(ringbuf.o)
 .janus_2cc_veneer
                0x0040a990        0x0 contiki-OrisenStamp.a(packetbuf.o)
 .janus_2cc_veneer
                0x0040a990        0x0 contiki-OrisenStamp.a(queuebuf.o)
 .janus_2cc_veneer
                0x0040a990        0x0 contiki-OrisenStamp.a(packetqueue.o)
 .janus_2cc_veneer
                0x0040a990        0x0 contiki-OrisenStamp.a(clock.o)
 .janus_2cc_veneer
                0x0040a990        0x0 contiki-OrisenStamp.a(button-sensor.o)
 .janus_2cc_veneer
                0x0040a990        0x0 contiki-OrisenStamp.a(sensors.o)
 .janus_2cc_veneer
                0x0040a990        0x0 contiki-OrisenStamp.a(RTC.o)
 .janus_2cc_veneer
                0x0040a990        0x0 contiki-OrisenStamp.a(kbi_events.o)
 .janus_2cc_veneer
                0x0040a990        0x0 contiki-OrisenStamp.a(io-pins.o)
 .janus_2cc_veneer
                0x0040a990        0x0 contiki-OrisenStamp.a(contiki-crm.o)
 .janus_2cc_veneer
                0x0040a990        0x0 contiki-OrisenStamp.a(contiki-maca.o)
 .janus_2cc_veneer
                0x0040a990        0x0 contiki-OrisenStamp.a(contiki-misc.o)
 .janus_2cc_veneer
                0x0040a990        0x0 contiki-OrisenStamp.a(leds.o)
 .janus_2cc_veneer
                0x0040a990        0x0 contiki-OrisenStamp.a(contiki-uart.o)
 .janus_2cc_veneer
                0x0040a990        0x0 contiki-OrisenStamp.a(dbg-printf.o)
 .janus_2cc_veneer
                0x0040a990        0x0 contiki-OrisenStamp.a(dbg-sprintf.o)
 .janus_2cc_veneer
                0x0040a990        0x0 contiki-OrisenStamp.a(strformat.o)
 .janus_2cc_veneer
                0x0040a990        0x0 contiki-OrisenStamp.a(adc.o)
 .janus_2cc_veneer
                0x0040a990        0x0 contiki-OrisenStamp.a(gpio.o)
 .janus_2cc_veneer
                0x0040a990        0x0 contiki-OrisenStamp.a(gpio-util.o)
 .janus_2cc_veneer
                0x0040a990        0x0 contiki-OrisenStamp.a(i2c.o)
 .janus_2cc_veneer
                0x0040a990        0x0 contiki-OrisenStamp.a(maca.o)
 .janus_2cc_veneer
                0x0040a990        0x0 contiki-OrisenStamp.a(nvm.o)
 .janus_2cc_veneer
                0x0040a990        0x0 contiki-OrisenStamp.a(uart1.o)
 .janus_2cc_veneer
                0x0040a990        0x0 contiki-OrisenStamp.a(uart2.o)
 .janus_2cc_veneer
                0x0040a990        0x0 contiki-OrisenStamp.a(default_lowleve)
 .janus_2cc_veneer
                0x0040a990        0x0 contiki-OrisenStamp.a(isr.o)
 .janus_2cc_veneer
                0x0040a990        0x0 contiki-OrisenStamp.a(unicast.o)
 .janus_2cc_veneer
                0x0040a990        0x0 contiki-OrisenStamp.a(frame802154.o)
 .janus_2cc_veneer
                0x0040a990        0x0 contiki-OrisenStamp.a(debug-uart.o)
 .janus_2cc_veneer
                0x0040a990        0x0 contiki-OrisenStamp.a(leds-arch.o)
 .janus_2cc_veneer
                0x0040a990        0x0 /home/user/CodeSourcery/Sourcery_G++_Lite/bin/../lib/gcc/arm-none-eabi/4.3.2/libgcc.a(_udivsi3.o)
 .janus_2cc_veneer
                0x0040a990        0x0 /home/user/CodeSourcery/Sourcery_G++_Lite/bin/../lib/gcc/arm-none-eabi/4.3.2/libgcc.a(_divsi3.o)
 .janus_2cc_veneer
                0x0040a990        0x0 /home/user/CodeSourcery/Sourcery_G++_Lite/bin/../lib/gcc/arm-none-eabi/4.3.2/libgcc.a(_dvmd_tls.o)
 .janus_2cc_veneer
                0x0040a990        0x0 /home/user/CodeSourcery/Sourcery_G++_Lite/bin/../lib/gcc/arm-none-eabi/4.3.2/libgcc.a(_aeabi_uldivmod.o)
 .janus_2cc_veneer
                0x0040a990        0x0 /home/user/CodeSourcery/Sourcery_G++_Lite/bin/../lib/gcc/arm-none-eabi/4.3.2/libgcc.a(bpabi.o)
 .janus_2cc_veneer
                0x0040a990        0x0 /home/user/CodeSourcery/Sourcery_G++_Lite/bin/../lib/gcc/arm-none-eabi/4.3.2/libgcc.a(_divdi3.o)
 .janus_2cc_veneer
                0x0040a990        0x0 /home/user/CodeSourcery/Sourcery_G++_Lite/bin/../lib/gcc/arm-none-eabi/4.3.2/libgcc.a(_udivdi3.o)
 .janus_2cc_veneer
                0x0040a990        0x0 /home/user/CodeSourcery/Sourcery_G++_Lite/bin/../lib/gcc/arm-none-eabi/4.3.2/libgcc.a(_clz.o)
 .janus_2cc_veneer
                0x0040a990        0x0 /home/user/CodeSourcery/Sourcery_G++_Lite/bin/../lib/gcc/arm-none-eabi/4.3.2/../../../../arm-none-eabi/lib/libc.a(lib_a-malloc.o)
 .janus_2cc_veneer
                0x0040a990        0x0 /home/user/CodeSourcery/Sourcery_G++_Lite/bin/../lib/gcc/arm-none-eabi/4.3.2/../../../../arm-none-eabi/lib/libc.a(lib_a-mallocr.o)
 .janus_2cc_veneer
                0x0040a990        0x0 /home/user/CodeSourcery/Sourcery_G++_Lite/bin/../lib/gcc/arm-none-eabi/4.3.2/../../../../arm-none-eabi/lib/libc.a(lib_a-memcmp.o)
 .janus_2cc_veneer
                0x0040a990        0x0 /home/user/CodeSourcery/Sourcery_G++_Lite/bin/../lib/gcc/arm-none-eabi/4.3.2/../../../../arm-none-eabi/lib/libc.a(lib_a-memcpy.o)
 .janus_2cc_veneer
                0x0040a990        0x0 /home/user/CodeSourcery/Sourcery_G++_Lite/bin/../lib/gcc/arm-none-eabi/4.3.2/../../../../arm-none-eabi/lib/libc.a(lib_a-memset.o)
 .janus_2cc_veneer
                0x0040a990        0x0 /home/user/CodeSourcery/Sourcery_G++_Lite/bin/../lib/gcc/arm-none-eabi/4.3.2/../../../../arm-none-eabi/lib/libc.a(lib_a-mlock.o)
 .janus_2cc_veneer
                0x0040a990        0x0 /home/user/CodeSourcery/Sourcery_G++_Lite/bin/../lib/gcc/arm-none-eabi/4.3.2/../../../../arm-none-eabi/lib/libc.a(lib_a-sbrkr.o)
 .janus_2cc_veneer
                0x0040a990        0x0 /home/user/CodeSourcery/Sourcery_G++_Lite/bin/../lib/gcc/arm-none-eabi/4.3.2/../../../../arm-none-eabi/lib/libc.a(lib_a-strcat.o)
 .janus_2cc_veneer
                0x0040a990        0x0 /home/user/CodeSourcery/Sourcery_G++_Lite/bin/../lib/gcc/arm-none-eabi/4.3.2/../../../../arm-none-eabi/lib/libc.a(lib_a-strcpy.o)
 .janus_2cc_veneer
                0x0040a990        0x0 /home/user/CodeSourcery/Sourcery_G++_Lite/bin/../lib/gcc/arm-none-eabi/4.3.2/../../../../arm-none-eabi/lib/libc.a(lib_a-strlen.o)
 .janus_2cc_veneer
                0x0040a990        0x0 /home/user/CodeSourcery/Sourcery_G++_Lite/bin/../lib/gcc/arm-none-eabi/4.3.2/../../../../arm-none-eabi/lib/libc.a(lib_a-strncmp.o)
 .janus_2cc_veneer
                0x0040a990        0x0 /home/user/CodeSourcery/Sourcery_G++_Lite/bin/../lib/gcc/arm-none-eabi/4.3.2/../../../../arm-none-eabi/lib/libc.a(lib_a-freer.o)
 .janus_2cc_veneer
                0x0040a990        0x0 /home/user/CodeSourcery/Sourcery_G++_Lite/bin/../lib/gcc/arm-none-eabi/4.3.2/../../../../arm-none-eabi/lib/libc.a(lib_a-impure.o)
 .janus_2cc_veneer
                0x0040a990        0x0 /home/user/CodeSourcery/Sourcery_G++_Lite/bin/../lib/gcc/arm-none-eabi/4.3.2/../../../../arm-none-eabi/lib/libc.a(lib_a-reent.o)

.interp
 *(.interp)

.note.gnu.build-id
 *(.note.gnu.build-id)

.hash
 *(.hash)

.gnu.hash
 *(.gnu.hash)

.dynsym
 *(.dynsym)

.dynstr
 *(.dynstr)

.gnu.version
 *(.gnu.version)

.gnu.version_d
 *(.gnu.version_d)

.gnu.version_r
 *(.gnu.version_r)

.rel.dyn
 *(.rel.init)
 *(.rel.text .rel.text.* .rel.gnu.linkonce.t.*)
 *(.rel.fini)
 *(.rel.rodata .rel.rodata.* .rel.gnu.linkonce.r.*)
 *(.rel.data.rel.ro* .rel.gnu.linkonce.d.rel.ro.*)
 *(.rel.data .rel.data.* .rel.gnu.linkonce.d.*)
 *(.rel.tdata .rel.tdata.* .rel.gnu.linkonce.td.*)
 *(.rel.tbss .rel.tbss.* .rel.gnu.linkonce.tb.*)
 *(.rel.ctors)
 *(.rel.dtors)
 *(.rel.got)
 *(.rel.bss .rel.bss.* .rel.gnu.linkonce.b.*)

.rela.dyn
 *(.rela.init)
 *(.rela.text .rela.text.* .rela.gnu.linkonce.t.*)
 *(.rela.fini)
 *(.rela.rodata .rela.rodata.* .rela.gnu.linkonce.r.*)
 *(.rela.data .rela.data.* .rela.gnu.linkonce.d.*)
 *(.rela.tdata .rela.tdata.* .rela.gnu.linkonce.td.*)
 *(.rela.tbss .rela.tbss.* .rela.gnu.linkonce.tb.*)
 *(.rela.ctors)
 *(.rela.dtors)
 *(.rela.got)
 *(.rela.bss .rela.bss.* .rela.gnu.linkonce.b.*)

.rel.plt
 *(.rel.plt)

.rela.plt
 *(.rela.plt)

.init
 *(.init)

.plt
 *(.plt)

.fini
 *(.fini)
                0x0040a990                PROVIDE (__etext, .)
                0x0040a990                PROVIDE (_etext, .)
                0x0040a990                PROVIDE (etext, .)

.rodata         0x0040a990      0x9ac
 *(.rodata .rodata.* .gnu.linkonce.r.*)
 .rodata        0x0040a990        0x6 syncSensor.co
 *fill*         0x0040a996        0x2 00
 .rodata.callbacks
                0x0040a998        0x4 syncSensor.co
 .rodata.autostart_processes
                0x0040a99c        0xc syncSensor.co
                0x0040a99c                autostart_processes
 .rodata.str1.1
                0x0040a9a8      0x137 syncSensor.co
                                0x13a (size before relaxing)
 .rodata.str1.1
                0x0040aadf       0xed obj_OrisenStamp/contiki-stamp-main.o
                                 0xf0 (size before relaxing)
 .rodata.addr_ff
                0x0040abcc        0x8 obj_OrisenStamp/contiki-stamp-main.o
                0x0040abcc                addr_ff
 .rodata.rimeaddr_null
                0x0040abd4        0x8 contiki-OrisenStamp.a(rimeaddr.o)
                0x0040abd4                rimeaddr_null
 .rodata.str1.1
                0x0040abdc        0x5 contiki-OrisenStamp.a(rime.o)
 *fill*         0x0040abe1        0x3 00
 .rodata.rime_driver
                0x0040abe4        0xc contiki-OrisenStamp.a(rime.o)
                0x0040abe4                rime_driver
 .rodata.broadcast_callbacks
                0x0040abf0        0x8 contiki-OrisenStamp.a(broadcast-annou)
 .rodata.attributes
                0x0040abf8        0x4 contiki-OrisenStamp.a(broadcast.o)
 .rodata.broadcast
                0x0040abfc        0x8 contiki-OrisenStamp.a(broadcast.o)
 .rodata.attributes
                0x0040ac04        0x2 contiki-OrisenStamp.a(abc.o)
 .rodata.attributes
                0x0040ac06       0x14 contiki-OrisenStamp.a(collect.o)
 .rodata.str1.1
                0x0040ac1a       0x88 contiki-OrisenStamp.a(collect.o)
 *fill*         0x0040aca2        0x2 00
 .rodata.unicast_callbacks
                0x0040aca4        0x8 contiki-OrisenStamp.a(collect.o)
 .rodata.chameleon_bitopt
                0x0040acac        0xc contiki-OrisenStamp.a(chameleon-bitop)
                0x0040acac                chameleon_bitopt
 .rodata.bitmask
                0x0040acb8        0x9 contiki-OrisenStamp.a(chameleon-bitop)
 .rodata.str1.1
                0x0040acc1        0x8 contiki-OrisenStamp.a(nullrdc.o)
 *fill*         0x0040acc9        0x3 00
 .rodata.nullrdc_driver
                0x0040accc       0x20 contiki-OrisenStamp.a(nullrdc.o)
                0x0040accc                nullrdc_driver
 .rodata.framer_802154
                0x0040acec        0x8 contiki-OrisenStamp.a(framer-802154.o)
                0x0040acec                framer_802154
 .rodata.str1.1
                0x0040acf4        0x5 contiki-OrisenStamp.a(csma.o)
 *fill*         0x0040acf9        0x3 00
 .rodata.csma_driver
                0x0040acfc       0x1c contiki-OrisenStamp.a(csma.o)
                0x0040acfc                csma_driver
 .rodata.str1.1
                0x0040ad18        0xe contiki-OrisenStamp.a(serial-line.o)
 .rodata.str1.1
                0x0040ad26        0xc contiki-OrisenStamp.a(etimer.o)
 .rodata.str1.1
                0x0040ad32        0xf contiki-OrisenStamp.a(ctimer.o)
 *fill*         0x0040ad41        0x3 00
 .rodata.packetbuf
                0x0040ad44        0x4 contiki-OrisenStamp.a(packetbuf.o)
 .rodata.str1.1
                0x0040ad48        0x7 contiki-OrisenStamp.a(button-sensor.o)
 *fill*         0x0040ad4f        0x1 00
 .rodata.button_sensor
                0x0040ad50       0x10 contiki-OrisenStamp.a(button-sensor.o)
                0x0040ad50                button_sensor
 .rodata.str1.1
                0x0040ad60        0x8 contiki-OrisenStamp.a(sensors.o)
 .rodata.C.13.4643
                0x0040ad68        0x2 contiki-OrisenStamp.a(RTC.o)
 .rodata.str1.1
                0x0040ad6a        0xc contiki-OrisenStamp.a(RTC.o)
 .rodata.str1.1
                0x0040ad76       0x1a contiki-OrisenStamp.a(kbi_events.o)
 .rodata.ioPins_configurePin
                0x0040ad90       0x40 contiki-OrisenStamp.a(io-pins.o)
 .rodata.initialSettings
                0x0040add0       0x50 contiki-OrisenStamp.a(io-pins.o)
 .rodata.str1.1
                0x0040ae20        0xd contiki-OrisenStamp.a(contiki-maca.o)
 *fill*         0x0040ae2d        0x3 00
 .rodata.contiki_maca_driver
                0x0040ae30       0x28 contiki-OrisenStamp.a(contiki-maca.o)
                0x0040ae30                contiki_maca_driver
 .rodata.buffer.1350
                0x0040ae58       0x10 contiki-OrisenStamp.a(strformat.o)
 .rodata.str1.1
                0x0040ae68       0x35 contiki-OrisenStamp.a(strformat.o)
                                 0x37 (size before relaxing)
 .rodata.buffer.1364
                0x0040ae9d       0x10 contiki-OrisenStamp.a(strformat.o)
 .rodata.str1.1
                0x0040aead       0x41 contiki-OrisenStamp.a(i2c.o)
 *fill*         0x0040aeee        0x2 00
 .rodata.decode_status
                0x0040aef0       0x3c contiki-OrisenStamp.a(maca.o)
 .rodata.addr_cal5
                0x0040af2c       0x10 contiki-OrisenStamp.a(maca.o)
                0x0040af2c                addr_cal5
 .rodata.PSMVAL
                0x0040af3c       0x4c contiki-OrisenStamp.a(maca.o)
                0x0040af3c                PSMVAL
 .rodata.addr_seq2
                0x0040af88        0x8 contiki-OrisenStamp.a(maca.o)
                0x0040af88                addr_seq2
 .rodata.AIMVAL
                0x0040af90       0x4c contiki-OrisenStamp.a(maca.o)
                0x0040af90                AIMVAL
 .rodata.addr_seq1
                0x0040afdc        0x8 contiki-OrisenStamp.a(maca.o)
                0x0040afdc                addr_seq1
 .rodata.PAVAL  0x0040afe4       0x4c contiki-OrisenStamp.a(maca.o)
                0x0040afe4                PAVAL
 .rodata.addr_cal3_seq1
                0x0040b030        0xc contiki-OrisenStamp.a(maca.o)
                0x0040b030                addr_cal3_seq1
 .rodata.addr_cal3_seq3
                0x0040b03c        0x4 contiki-OrisenStamp.a(maca.o)
                0x0040b03c                addr_cal3_seq3
 .rodata.data_reg_rep
                0x0040b040       0xac contiki-OrisenStamp.a(maca.o)
                0x0040b040                data_reg_rep
 .rodata.VCODivF
                0x0040b0ec       0x40 contiki-OrisenStamp.a(maca.o)
                0x0040b0ec                VCODivF
 .rodata.addr_cal3_seq2
                0x0040b12c        0x8 contiki-OrisenStamp.a(maca.o)
                0x0040b12c                addr_cal3_seq2
 .rodata.VCODivI
                0x0040b134       0x10 contiki-OrisenStamp.a(maca.o)
                0x0040b134                VCODivI
 .rodata.data_seq1
                0x0040b144        0x8 contiki-OrisenStamp.a(maca.o)
                0x0040b144                data_seq1
 .rodata.data_seq2
                0x0040b14c        0x8 contiki-OrisenStamp.a(maca.o)
                0x0040b14c                data_seq2
 .rodata.data_cal5
                0x0040b154       0x10 contiki-OrisenStamp.a(maca.o)
                0x0040b154                data_cal5
 .rodata.data_cal3_seq1
                0x0040b164        0xc contiki-OrisenStamp.a(maca.o)
                0x0040b164                data_cal3_seq1
 .rodata.addr_reg_rep
                0x0040b170       0xac contiki-OrisenStamp.a(maca.o)
                0x0040b170                addr_reg_rep
 .rodata.data_cal3_seq2
                0x0040b21c        0x8 contiki-OrisenStamp.a(maca.o)
                0x0040b21c                data_cal3_seq2
 .rodata.data_cal3_seq3
                0x0040b224        0x4 contiki-OrisenStamp.a(maca.o)
                0x0040b224                data_cal3_seq3
 .rodata.uc     0x0040b228        0x8 contiki-OrisenStamp.a(unicast.o)
 .rodata.attributes
                0x0040b230        0x6 contiki-OrisenStamp.a(unicast.o)
 .rodata        0x0040b236      0x100 /home/user/CodeSourcery/Sourcery_G++_Lite/bin/../lib/gcc/arm-none-eabi/4.3.2/libgcc.a(_clz.o)
                0x0040b236                __clz_tab
 *fill*         0x0040b336        0x2 00
 .rodata.str1.4
                0x0040b338        0x4 /home/user/CodeSourcery/Sourcery_G++_Lite/bin/../lib/gcc/arm-none-eabi/4.3.2/../../../../arm-none-eabi/lib/libc.a(lib_a-impure.o)

.ARM.exidx      0x0040b33c       0x10
 .ARM.exidx     0x0040b33c        0x8 /home/user/CodeSourcery/Sourcery_G++_Lite/bin/../lib/gcc/arm-none-eabi/4.3.2/libgcc.a(_divdi3.o)
 .ARM.exidx     0x0040b344        0x8 /home/user/CodeSourcery/Sourcery_G++_Lite/bin/../lib/gcc/arm-none-eabi/4.3.2/libgcc.a(_udivdi3.o)

.rodata1
 *(.rodata1)

.eh_frame_hdr
 *(.eh_frame_hdr)

.eh_frame
 *(.eh_frame)

.gcc_except_table
 *(.gcc_except_table .gcc_except_table.*)
                0x0040b34c                . = ALIGN (0x4)
                0x0040b34c                . = (0x4 DATA_SEGMENT_ALIGN 0x4)

.eh_frame
 *(.eh_frame)

.gcc_except_table
 *(.gcc_except_table .gcc_except_table.*)

.tdata
 *(.tdata .tdata.* .gnu.linkonce.td.*)

.tbss
 *(.tbss .tbss.* .gnu.linkonce.tb.*)
 *(.tcommon)

.preinit_array  0x0040b34c        0x0
                0x0040b34c                PROVIDE (__preinit_array_start, .)
 *(.preinit_array)
                0x0040b34c                PROVIDE (__preinit_array_end, .)

.init_array     0x0040b34c        0x0
                0x0040b34c                PROVIDE (__init_array_start, .)
 *(SORT(.init_array.*))
 *(.init_array)
                0x0040b34c                PROVIDE (__init_array_end, .)

.fini_array     0x0040b34c        0x0
                0x0040b34c                PROVIDE (__fini_array_start, .)
 *(.fini_array)
 *(SORT(.fini_array.*))
                0x0040b34c                PROVIDE (__fini_array_end, .)

.ctors
 *crtbegin.o(.ctors)
 *crtbegin?.o(.ctors)
 *(EXCLUDE_FILE(*crtend?.o *crtend.o) .ctors)
 *(SORT(.ctors.*))
 *(.ctors)

.dtors
 *crtbegin.o(.dtors)
 *crtbegin?.o(.dtors)
 *(EXCLUDE_FILE(*crtend?.o *crtend.o) .dtors)
 *(SORT(.dtors.*))
 *(.dtors)

.jcr
 *(.jcr)

.data.rel.ro
 *(.data.rel.ro.local* .gnu.linkonce.d.rel.ro.local.*)
 *(.data.rel.ro* .gnu.linkonce.d.rel.ro.*)

.dynamic
 *(.dynamic)
                0x0040b34c                . = (. DATA_SEGMENT_RELRO_END 0x0)

.got
 *(.got.plt)
 *(.got)

.data           0x0040b350      0x978
                0x0040b350                __data_start = .
 *(.data .data.* .gnu.linkonce.d.*)
 .data.uart_process
                0x0040b350       0x10 syncSensor.co
                0x0040b350                uart_process
 .data.ontologyID
                0x0040b360        0x4 syncSensor.co
                0x0040b360                ontologyID
 .data.ledflasher_process
                0x0040b364       0x10 syncSensor.co
                0x0040b364                ledflasher_process
 .data.pairing_process
                0x0040b374       0x10 syncSensor.co
                0x0040b374                pairing_process
 .data.example_collect_process
                0x0040b384       0x10 syncSensor.co
                0x0040b384                example_collect_process
 .data.uartRunning
                0x0040b394        0x4 syncSensor.co
 .data.sensors  0x0040b398        0x8 obj_OrisenStamp/contiki-stamp-main.o
                0x0040b398                sensors
 .data.send_queue_memb
                0x0040b3a0        0xc contiki-OrisenStamp.a(collect.o)
 .data.collect_neighbors_mem
                0x0040b3ac        0xc contiki-OrisenStamp.a(collect-neighbo)
 .data.metadata_memb
                0x0040b3b8        0xc contiki-OrisenStamp.a(csma.o)
 .data.neighbor_memb
                0x0040b3c4        0xc contiki-OrisenStamp.a(csma.o)
 .data.packet_memb
                0x0040b3d0        0xc contiki-OrisenStamp.a(csma.o)
 .data.serial_line_process
                0x0040b3dc       0x10 contiki-OrisenStamp.a(serial-line.o)
                0x0040b3dc                serial_line_process
 .data.etimer_process
                0x0040b3ec       0x10 contiki-OrisenStamp.a(etimer.o)
                0x0040b3ec                etimer_process
 .data.ctimer_process
                0x0040b3fc       0x10 contiki-OrisenStamp.a(ctimer.o)
                0x0040b3fc                ctimer_process
 .data.bufmem   0x0040b40c        0xc contiki-OrisenStamp.a(queuebuf.o)
 .data.refbufmem
                0x0040b418        0xc contiki-OrisenStamp.a(queuebuf.o)
 .data.buframmem
                0x0040b424        0xc contiki-OrisenStamp.a(queuebuf.o)
 .data.sensors_process
                0x0040b430       0x10 contiki-OrisenStamp.a(sensors.o)
                0x0040b430                sensors_process
 .data.RTC_process
                0x0040b440       0x10 contiki-OrisenStamp.a(RTC.o)
                0x0040b440                RTC_process
 .data.kbi_event_process
                0x0040b450       0x10 contiki-OrisenStamp.a(kbi_events.o)
                0x0040b450                kbi_event_process
 .data.contiki_maca_process
                0x0040b460       0x10 contiki-OrisenStamp.a(contiki-maca.o)
                0x0040b460                contiki_maca_process
 .data.ctxt     0x0040b470        0x8 contiki-OrisenStamp.a(dbg-printf.o)
 .data.prm_mode
                0x0040b478        0x1 contiki-OrisenStamp.a(maca.o)
                0x0040b478                prm_mode
 .data.ctov     0x0040b479       0x10 contiki-OrisenStamp.a(maca.o)
                0x0040b479                ctov
 *fill*         0x0040b489        0x3 00
 .data.get_lqi  0x0040b48c        0x4 contiki-OrisenStamp.a(maca.o)
                0x0040b48c                get_lqi
 .data.nvm_setsvar
                0x0040b490        0x4 contiki-OrisenStamp.a(nvm.o)
                0x0040b490                nvm_setsvar
 .data.nvm_read
                0x0040b494        0x4 contiki-OrisenStamp.a(nvm.o)
                0x0040b494                nvm_read
 .data.nvm_detect
                0x0040b498        0x4 contiki-OrisenStamp.a(nvm.o)
                0x0040b498                nvm_detect
 .data.nvm_write
                0x0040b49c        0x4 contiki-OrisenStamp.a(nvm.o)
                0x0040b49c                nvm_write
 .data.tmr_isr_funcs
                0x0040b4a0       0x10 contiki-OrisenStamp.a(isr.o)
 .data          0x0040b4b0      0x410 /home/user/CodeSourcery/Sourcery_G++_Lite/bin/../lib/gcc/arm-none-eabi/4.3.2/../../../../arm-none-eabi/lib/libc.a(lib_a-mallocr.o)
                0x0040b8b8                __malloc_sbrk_base
                0x0040b4b0                __malloc_av_
                0x0040b8bc                __malloc_trim_threshold
 .data          0x0040b8c0      0x408 /home/user/CodeSourcery/Sourcery_G++_Lite/bin/../lib/gcc/arm-none-eabi/4.3.2/../../../../arm-none-eabi/lib/libc.a(lib_a-impure.o)
                0x0040b8c0                _impure_ptr

.data1
 *(.data1)
                0x0040bcc8                _edata = .
                0x0040bcc8                PROVIDE (edata, .)

.stack          0x0040bcc8      0x720
                0x0040bcc8                __stack_start__ = .
                0x0040bdc8                . = (. + IRQ_STACK_SIZE)
 *fill*         0x0040bcc8      0x100 00
                0x0040bdc8                . = ALIGN (0x4)
                0x0040bdc8                __irq_stack_top__ = .
                0x0040bec8                . = (. + FIQ_STACK_SIZE)
 *fill*         0x0040bdc8      0x100 00
                0x0040bec8                . = ALIGN (0x4)
                0x0040bec8                __fiq_stack_top__ = .
                0x0040bfc8                . = (. + SVC_STACK_SIZE)
 *fill*         0x0040bec8      0x100 00
                0x0040bfc8                . = ALIGN (0x4)
                0x0040bfc8                __svc_stack_top__ = .
                0x0040bfd8                . = (. + ABT_STACK_SIZE)
 *fill*         0x0040bfc8       0x10 00
                0x0040bfd8                . = ALIGN (0x4)
                0x0040bfd8                __abt_stack_top__ = .
                0x0040bfe8                . = (. + UND_STACK_SIZE)
 *fill*         0x0040bfd8       0x10 00
                0x0040bfe8                . = ALIGN (0x4)
                0x0040bfe8                __und_stack_top__ = .
                0x0040c3e8                . = (. + SYS_STACK_SIZE)
 *fill*         0x0040bfe8      0x400 00
                0x0040c3e8                . = ALIGN (0x4)
                0x0040c3e8                __sys_stack_top__ = .
                0x0040c3e8                __stack_end__ = .
                0x0040c3e8                __bss_start = .
                0x0040c3e8                __bss_start__ = .

.bss            0x0040c3e8     0x3748
 *(.dynbss)
 *(.bss .bss.* .gnu.linkonce.b.*)
 .bss.pairing_done
                0x0040c3e8        0x1 syncSensor.co
 *fill*         0x0040c3e9        0x3 00
 .bss.counter.6776
                0x0040c3ec        0x4 syncSensor.co
 .bss.et.6772   0x0040c3f0       0x10 syncSensor.co
 .bss.flasherThreadTimer.6826
                0x0040c400       0x10 syncSensor.co
 .bss.flashInterval.6847
                0x0040c410       0x10 syncSensor.co
 .bss.tc        0x0040c420      0x108 syncSensor.co
 .bss.ID        0x0040c528        0x4 syncSensor.co
                0x0040c528                ID
 .bss.oldparent.6719
                0x0040c52c        0x8 syncSensor.co
 .bss.sensors_flags
                0x0040c534        0x2 obj_OrisenStamp/contiki-stamp-main.o
                0x0040c534                sensors_flags
 .bss.rimeaddr_node_addr
                0x0040c536        0x8 contiki-OrisenStamp.a(rimeaddr.o)
                0x0040c536                rimeaddr_node_addr
 *fill*         0x0040c53e        0x2 00
 .bss.sniffers_list
                0x0040c540        0x4 contiki-OrisenStamp.a(rime.o)
 .bss.rimestats
                0x0040c544       0x48 contiki-OrisenStamp.a(rimestats.o)
                0x0040c544                rimestats
 .bss.announcements_list
                0x0040c58c        0x4 contiki-OrisenStamp.a(announcement.o)
 .bss.observer_callback
                0x0040c590        0x4 contiki-OrisenStamp.a(announcement.o)
 .bss.c         0x0040c594       0x6c contiki-OrisenStamp.a(broadcast-annou)
 .bss.send_queue_memb_memb_count
                0x0040c600        0xc contiki-OrisenStamp.a(collect.o)
 .bss.stats     0x0040c60c       0x38 contiki-OrisenStamp.a(collect.o)
                0x0040c60c                stats
 .bss.send_queue_memb_memb_mem
                0x0040c644      0x240 contiki-OrisenStamp.a(collect.o)
 .bss.recent_packet_ptr
                0x0040c884        0x1 contiki-OrisenStamp.a(collect.o)
 *fill*         0x0040c885        0x3 00
 .bss.recent_packets
                0x0040c888      0x100 contiki-OrisenStamp.a(collect.o)
 .bss.collect_neighbors_mem_memb_count
                0x0040c988        0x8 contiki-OrisenStamp.a(collect-neighbo)
 .bss.collect_neighbors_mem_memb_mem
                0x0040c990      0x120 contiki-OrisenStamp.a(collect-neighbo)
 .bss.initialized.3155
                0x0040cab0        0x1 contiki-OrisenStamp.a(collect-neighbo)
 *fill*         0x0040cab1        0x3 00
 .bss.channel_list_list
                0x0040cab4        0x4 contiki-OrisenStamp.a(channel.o)
 .bss.mac_dsn   0x0040cab8        0x1 contiki-OrisenStamp.a(framer-802154.o)
 .bss.initialized
                0x0040cab9        0x1 contiki-OrisenStamp.a(framer-802154.o)
 .bss.seqno.3061
                0x0040caba        0x2 contiki-OrisenStamp.a(csma.o)
 .bss.packet_memb_memb_count
                0x0040cabc       0x10 contiki-OrisenStamp.a(csma.o)
 .bss.metadata_memb_memb_count
                0x0040cacc       0x10 contiki-OrisenStamp.a(csma.o)
 .bss.metadata_memb_memb_mem
                0x0040cadc       0xc0 contiki-OrisenStamp.a(csma.o)
 .bss.neighbor_list_list
                0x0040cb9c        0x4 contiki-OrisenStamp.a(csma.o)
 .bss.packet_memb_memb_mem
                0x0040cba0       0xc0 contiki-OrisenStamp.a(csma.o)
 .bss.neighbor_memb_memb_count
                0x0040cc60        0x2 contiki-OrisenStamp.a(csma.o)
 *fill*         0x0040cc62        0x2 00
 .bss.neighbor_memb_memb_mem
                0x0040cc64       0x70 contiki-OrisenStamp.a(csma.o)
 .bss.process_maxevents
                0x0040ccd4        0x1 contiki-OrisenStamp.a(process.o)
                0x0040ccd4                process_maxevents
 .bss.fevent    0x0040ccd5        0x1 contiki-OrisenStamp.a(process.o)
 .bss.nevents   0x0040ccd6        0x1 contiki-OrisenStamp.a(process.o)
 *fill*         0x0040ccd7        0x1 00
 .bss.data.2492
                0x0040ccd8        0x4 contiki-OrisenStamp.a(process.o)
 .bss.lastevent
                0x0040ccdc        0x1 contiki-OrisenStamp.a(process.o)
 *fill*         0x0040ccdd        0x3 00
 .bss.process_current
                0x0040cce0        0x4 contiki-OrisenStamp.a(process.o)
                0x0040cce0                process_current
 .bss.process_list
                0x0040cce4        0x4 contiki-OrisenStamp.a(process.o)
                0x0040cce4                process_list
 .bss.poll_requested
                0x0040cce8        0x1 contiki-OrisenStamp.a(process.o)
 *fill*         0x0040cce9        0x3 00
 .bss.p.2494    0x0040ccec        0x4 contiki-OrisenStamp.a(process.o)
 .bss.snum.2537
                0x0040ccf0        0x1 contiki-OrisenStamp.a(process.o)
 *fill*         0x0040ccf1        0x3 00
 .bss.events    0x0040ccf4       0x60 contiki-OrisenStamp.a(process.o)
 .bss.ev.2491   0x0040cd54        0x1 contiki-OrisenStamp.a(process.o)
 *fill*         0x0040cd55        0x3 00
 .bss.receiver.2493
                0x0040cd58        0x4 contiki-OrisenStamp.a(process.o)
 .bss.rxbuf_data
                0x0040cd5c       0x80 contiki-OrisenStamp.a(serial-line.o)
 .bss.overflow.2048
                0x0040cddc        0x1 contiki-OrisenStamp.a(serial-line.o)
 .bss.serial_line_event_message
                0x0040cddd        0x1 contiki-OrisenStamp.a(serial-line.o)
                0x0040cddd                serial_line_event_message
 *fill*         0x0040cdde        0x2 00
 .bss.rxbuf     0x0040cde0        0x8 contiki-OrisenStamp.a(serial-line.o)
 .bss.buf.2058  0x0040cde8       0x80 contiki-OrisenStamp.a(serial-line.o)
 .bss.ptr.2059  0x0040ce68        0x4 contiki-OrisenStamp.a(serial-line.o)
 .bss.timerlist
                0x0040ce6c        0x4 contiki-OrisenStamp.a(etimer.o)
 .bss.next_expiration
                0x0040ce70        0x4 contiki-OrisenStamp.a(etimer.o)
 .bss.ctimer_list_list
                0x0040ce74        0x4 contiki-OrisenStamp.a(ctimer.o)
 .bss.initialized
                0x0040ce78        0x1 contiki-OrisenStamp.a(ctimer.o)
 *fill*         0x0040ce79        0x3 00
 .bss.packetbufptr
                0x0040ce7c        0x4 contiki-OrisenStamp.a(packetbuf.o)
 .bss.hdrptr    0x0040ce80        0x1 contiki-OrisenStamp.a(packetbuf.o)
 *fill*         0x0040ce81        0x1 00
 .bss.buflen    0x0040ce82        0x2 contiki-OrisenStamp.a(packetbuf.o)
 .bss.packetbuf_attrs
                0x0040ce84       0x30 contiki-OrisenStamp.a(packetbuf.o)
                0x0040ce84                packetbuf_attrs
 .bss.packetbuf_aligned
                0x0040ceb4       0xb2 contiki-OrisenStamp.a(packetbuf.o)
 .bss.packetbuf_addrs
                0x0040cf66       0x20 contiki-OrisenStamp.a(packetbuf.o)
                0x0040cf66                packetbuf_addrs
 .bss.bufptr    0x0040cf86        0x2 contiki-OrisenStamp.a(packetbuf.o)
 .bss.buframmem_memb_count
                0x0040cf88       0x10 contiki-OrisenStamp.a(queuebuf.o)
 .bss.bufmem_memb_mem
                0x0040cf98       0x40 contiki-OrisenStamp.a(queuebuf.o)
 .bss.buframmem_memb_mem
                0x0040cfd8      0xd20 contiki-OrisenStamp.a(queuebuf.o)
 .bss.refbufmem_memb_mem
                0x0040dcf8       0x78 contiki-OrisenStamp.a(queuebuf.o)
 .bss.refbufmem_memb_count
                0x0040dd70        0x2 contiki-OrisenStamp.a(queuebuf.o)
 .bss.bufmem_memb_count
                0x0040dd72       0x10 contiki-OrisenStamp.a(queuebuf.o)
 *fill*         0x0040dd82        0x2 00
 .bss.current_clock
                0x0040dd84        0x4 contiki-OrisenStamp.a(clock.o)
 .bss.seconds   0x0040dd88        0x4 contiki-OrisenStamp.a(clock.o)
                0x0040dd88                seconds
 .bss.i.2093    0x0040dd8c        0x4 contiki-OrisenStamp.a(sensors.o)
 .bss.num_sensors
                0x0040dd90        0x1 contiki-OrisenStamp.a(sensors.o)
 *fill*         0x0040dd91        0x3 00
 .bss.events.2094
                0x0040dd94        0x4 contiki-OrisenStamp.a(sensors.o)
 .bss.sensors_event
                0x0040dd98        0x1 contiki-OrisenStamp.a(sensors.o)
                0x0040dd98                sensors_event
 *fill*         0x0040dd99        0x3 00
 .bss.rxbuf.4550
                0x0040dd9c        0x4 contiki-OrisenStamp.a(RTC.o)
 .bss.alarmCallback
                0x0040dda0        0x4 contiki-OrisenStamp.a(RTC.o)
 .bss.alarmProcess
                0x0040dda4        0x4 contiki-OrisenStamp.a(RTC.o)
 .bss.txbuf.4549
                0x0040dda8       0x11 contiki-OrisenStamp.a(RTC.o)
 *fill*         0x0040ddb9        0x3 00
 .bss.eventHandlerT9
                0x0040ddbc        0x4 contiki-OrisenStamp.a(kbi_events.o)
 .bss.T10_flag  0x0040ddc0        0x1 contiki-OrisenStamp.a(kbi_events.o)
 *fill*         0x0040ddc1        0x3 00
 .bss.eventHandlerT10
                0x0040ddc4        0x4 contiki-OrisenStamp.a(kbi_events.o)
 .bss.T9_flag   0x0040ddc8        0x1 contiki-OrisenStamp.a(kbi_events.o)
 *fill*         0x0040ddc9        0x3 00
 .bss.eventProcessT9
                0x0040ddcc        0x4 contiki-OrisenStamp.a(kbi_events.o)
 .bss.eventProcessT10
                0x0040ddd0        0x4 contiki-OrisenStamp.a(kbi_events.o)
 .bss.ioPins    0x0040ddd4       0x40 contiki-OrisenStamp.a(io-pins.o)
 .bss.cal_rtc_secs
                0x0040de14        0x4 contiki-OrisenStamp.a(contiki-crm.o)
                0x0040de14                cal_rtc_secs
 .bss.prepped_p
                0x0040de18       0x94 contiki-OrisenStamp.a(contiki-maca.o)
 .bss.contiki_maca_request_on
                0x0040deac        0x1 contiki-OrisenStamp.a(contiki-maca.o)
 .bss.contiki_maca_request_off
                0x0040dead        0x1 contiki-OrisenStamp.a(contiki-maca.o)
 .bss.tx_status
                0x0040deae        0x1 contiki-OrisenStamp.a(contiki-maca.o)
 *fill*         0x0040deaf        0x1 00
 .bss.heap.5080
                0x0040deb0        0x4 contiki-OrisenStamp.a(contiki-misc.o)
 .bss.leds      0x0040deb4        0x1 contiki-OrisenStamp.a(leds.o)
 .bss.invert    0x0040deb5        0x1 contiki-OrisenStamp.a(leds.o)
 *fill*         0x0040deb6        0x2 00
 .bss.uart1_input_handler
                0x0040deb8        0x4 contiki-OrisenStamp.a(contiki-uart.o)
                0x0040deb8                uart1_input_handler
 .bss.tx_byte_ctr
                0x0040debc        0x1 contiki-OrisenStamp.a(i2c.o)
 *fill*         0x0040debd        0x3 00
 .bss.tx_buf_ptr
                0x0040dec0        0x4 contiki-OrisenStamp.a(i2c.o)
 .bss.rx_buf_ptr
                0x0040dec4        0x4 contiki-OrisenStamp.a(i2c.o)
 .bss.rx_byte_ctr
                0x0040dec8        0x1 contiki-OrisenStamp.a(i2c.o)
 *fill*         0x0040dec9        0x3 00
 .bss.last_time.4880
                0x0040decc        0x4 contiki-OrisenStamp.a(maca.o)
 .bss.dma_rx    0x0040ded0        0x4 contiki-OrisenStamp.a(maca.o)
 .bss.fcs_mode  0x0040ded4        0x1 contiki-OrisenStamp.a(maca.o)
                0x0040ded4                fcs_mode
 *fill*         0x0040ded5        0x3 00
 .bss.ack_p.5203
                0x0040ded8        0x4 contiki-OrisenStamp.a(maca.o)
 .bss.free_head
                0x0040dedc        0x4 contiki-OrisenStamp.a(maca.o)
 .bss.last_post
                0x0040dee0        0x1 contiki-OrisenStamp.a(maca.o)
 *fill*         0x0040dee1        0x3 00
 .bss.rx_head   0x0040dee4        0x4 contiki-OrisenStamp.a(maca.o)
                0x0040dee4                rx_head
 .bss.maca_entry
                0x0040dee8        0x4 contiki-OrisenStamp.a(maca.o)
                0x0040dee8                maca_entry
 .bss.packet_pool
                0x0040deec     0x1280 contiki-OrisenStamp.a(maca.o)
 .bss.last_entry.4881
                0x0040f16c        0x4 contiki-OrisenStamp.a(maca.o)
 .bss.dummy_ack
                0x0040f170       0x94 contiki-OrisenStamp.a(maca.o)
 .bss.dma_tx    0x0040f204        0x4 contiki-OrisenStamp.a(maca.o)
 .bss.ram_values
                0x0040f208        0x4 contiki-OrisenStamp.a(maca.o)
 .bss.tx_head   0x0040f20c        0x4 contiki-OrisenStamp.a(maca.o)
                0x0040f20c                tx_head
 .bss.rx_end    0x0040f210        0x4 contiki-OrisenStamp.a(maca.o)
 .bss.tx_end    0x0040f214        0x4 contiki-OrisenStamp.a(maca.o)
 .bss.u1_tx_tail
                0x0040f218        0x4 contiki-OrisenStamp.a(uart1.o)
                0x0040f218                u1_tx_tail
 .bss.u1_tx_head
                0x0040f21c        0x4 contiki-OrisenStamp.a(uart1.o)
                0x0040f21c                u1_tx_head
 .bss.u1_rx_tail
                0x0040f220        0x4 contiki-OrisenStamp.a(uart1.o)
                0x0040f220                u1_rx_tail
 .bss.u1_rx_buf
                0x0040f224       0x60 contiki-OrisenStamp.a(uart1.o)
                0x0040f224                u1_rx_buf
 .bss.u1_rx_head
                0x0040f284        0x4 contiki-OrisenStamp.a(uart1.o)
                0x0040f284                u1_rx_head
 .bss.u1_tx_buf
                0x0040f288      0x400 contiki-OrisenStamp.a(uart1.o)
                0x0040f288                u1_tx_buf
 .bss.u2_tx_buf
                0x0040f688      0x400 contiki-OrisenStamp.a(uart2.o)
                0x0040f688                u2_tx_buf
 .bss.u2_rx_head
                0x0040fa88        0x4 contiki-OrisenStamp.a(uart2.o)
                0x0040fa88                u2_rx_head
 .bss.u2_rx_buf
                0x0040fa8c       0x60 contiki-OrisenStamp.a(uart2.o)
                0x0040fa8c                u2_rx_buf
 .bss.u2_tx_tail
                0x0040faec        0x4 contiki-OrisenStamp.a(uart2.o)
                0x0040faec                u2_tx_tail
 .bss.u2_tx_head
                0x0040faf0        0x4 contiki-OrisenStamp.a(uart2.o)
                0x0040faf0                u2_tx_head
 .bss.u2_rx_tail
                0x0040faf4        0x4 contiki-OrisenStamp.a(uart2.o)
                0x0040faf4                u2_rx_tail
 .bss           0x0040faf8       0x34 /home/user/CodeSourcery/Sourcery_G++_Lite/bin/../lib/gcc/arm-none-eabi/4.3.2/../../../../arm-none-eabi/lib/libc.a(lib_a-mallocr.o)
                0x0040faf8                __malloc_top_pad
                0x0040fb24                __malloc_max_sbrked_mem
                0x0040fafc                __malloc_current_mallinfo
                0x0040fb28                __malloc_max_total_mem
 *(COMMON)
 COMMON         0x0040fb2c        0x4 /home/user/CodeSourcery/Sourcery_G++_Lite/bin/../lib/gcc/arm-none-eabi/4.3.2/../../../../arm-none-eabi/lib/libc.a(lib_a-reent.o)
                0x0040fb2c                errno
                0x0040fb30                . = ALIGN ((. != 0x0)?0x4:0x1)
                0x0040fb30                _bss_end__ = .
                0x0040fb30                __bss_end__ = .
                0x0040fb30                . = ALIGN (0x4)

.heap           0x0040fb30     0x1000
                0x0040fb30                __heap_start__ = .
                0x0040fb30                PROVIDE (__HEAP_START, .)
 *(.heap)
                0x00410b30                . = (. + HEAP_SIZE)
 *fill*         0x0040fb30     0x1000 00
                0x00410b30                . = ALIGN (0x4)
                0x00410b30                __heap_end__ = .
                0x00410b30                PROVIDE (__HEAP_END, .)
                0x00410b30                . = ALIGN (0x4)
                0x00410b30                __end__ = .
                0x00410b30                _end = .
                0x00410b30                PROVIDE (end, .)
                0x00410b30                . = DATA_SEGMENT_END (.)

.stab           0x00000000      0x210
 *(.stab)
 .stab          0x00000000      0x210 obj_OrisenStamp/start.o

.stabstr        0x00000000       0x2f
 *(.stabstr)
 .stabstr       0x00000000       0x2f obj_OrisenStamp/start.o

.stab.excl
 *(.stab.excl)

.stab.exclstr
 *(.stab.exclstr)

.stab.index
 *(.stab.index)

.stab.indexstr
 *(.stab.indexstr)

.comment        0x00000000      0x9d8
 *(.comment)
 .comment       0x00000000       0x2a syncSensor.co
 .comment       0x0000002a       0x2a obj_OrisenStamp/contiki-stamp-main.o
 .comment       0x00000054       0x2a contiki-OrisenStamp.a(rimeaddr.o)
 .comment       0x0000007e       0x2a contiki-OrisenStamp.a(rime.o)
 .comment       0x000000a8       0x2a contiki-OrisenStamp.a(rimestats.o)
 .comment       0x000000d2       0x2a contiki-OrisenStamp.a(announcement.o)
 .comment       0x000000fc       0x2a contiki-OrisenStamp.a(broadcast-annou)
 .comment       0x00000126       0x2a contiki-OrisenStamp.a(broadcast.o)
 .comment       0x00000150       0x2a contiki-OrisenStamp.a(abc.o)
 .comment       0x0000017a       0x2a contiki-OrisenStamp.a(collect.o)
 .comment       0x000001a4       0x2a contiki-OrisenStamp.a(collect-neighbo)
 .comment       0x000001ce       0x2a contiki-OrisenStamp.a(collect-link-es)
 .comment       0x000001f8       0x2a contiki-OrisenStamp.a(chameleon.o)
 .comment       0x00000222       0x2a contiki-OrisenStamp.a(channel.o)
 .comment       0x0000024c       0x2a contiki-OrisenStamp.a(chameleon-bitop)
 .comment       0x00000276       0x2a contiki-OrisenStamp.a(nullrdc.o)
 .comment       0x000002a0       0x2a contiki-OrisenStamp.a(mac.o)
 .comment       0x000002ca       0x2a contiki-OrisenStamp.a(framer-802154.o)
 .comment       0x000002f4       0x2a contiki-OrisenStamp.a(csma.o)
 .comment       0x0000031e       0x2a contiki-OrisenStamp.a(process.o)
 .comment       0x00000348       0x2a contiki-OrisenStamp.a(autostart.o)
 .comment       0x00000372       0x2a contiki-OrisenStamp.a(serial-line.o)
 .comment       0x0000039c       0x2a contiki-OrisenStamp.a(memb.o)
 .comment       0x000003c6       0x2a contiki-OrisenStamp.a(timer.o)
 .comment       0x000003f0       0x2a contiki-OrisenStamp.a(list.o)
 .comment       0x0000041a       0x2a contiki-OrisenStamp.a(etimer.o)
 .comment       0x00000444       0x2a contiki-OrisenStamp.a(ctimer.o)
 .comment       0x0000046e       0x2a contiki-OrisenStamp.a(random.o)
 .comment       0x00000498       0x2a contiki-OrisenStamp.a(ringbuf.o)
 .comment       0x000004c2       0x2a contiki-OrisenStamp.a(packetbuf.o)
 .comment       0x000004ec       0x2a contiki-OrisenStamp.a(queuebuf.o)
 .comment       0x00000516       0x2a contiki-OrisenStamp.a(packetqueue.o)
 .comment       0x00000540       0x2a contiki-OrisenStamp.a(clock.o)
 .comment       0x0000056a       0x2a contiki-OrisenStamp.a(button-sensor.o)
 .comment       0x00000594       0x2a contiki-OrisenStamp.a(sensors.o)
 .comment       0x000005be       0x2a contiki-OrisenStamp.a(RTC.o)
 .comment       0x000005e8       0x2a contiki-OrisenStamp.a(kbi_events.o)
 .comment       0x00000612       0x2a contiki-OrisenStamp.a(io-pins.o)
 .comment       0x0000063c       0x2a contiki-OrisenStamp.a(contiki-crm.o)
 .comment       0x00000666       0x2a contiki-OrisenStamp.a(contiki-maca.o)
 .comment       0x00000690       0x2a contiki-OrisenStamp.a(contiki-misc.o)
 .comment       0x000006ba       0x2a contiki-OrisenStamp.a(leds.o)
 .comment       0x000006e4       0x2a contiki-OrisenStamp.a(contiki-uart.o)
 .comment       0x0000070e       0x2a contiki-OrisenStamp.a(dbg-printf.o)
 .comment       0x00000738       0x2a contiki-OrisenStamp.a(dbg-sprintf.o)
 .comment       0x00000762       0x2a contiki-OrisenStamp.a(strformat.o)
 .comment       0x0000078c       0x2a contiki-OrisenStamp.a(adc.o)
 .comment       0x000007b6       0x2a contiki-OrisenStamp.a(gpio.o)
 .comment       0x000007e0       0x2a contiki-OrisenStamp.a(gpio-util.o)
 .comment       0x0000080a       0x2a contiki-OrisenStamp.a(i2c.o)
 .comment       0x00000834       0x2a contiki-OrisenStamp.a(maca.o)
 .comment       0x0000085e       0x2a contiki-OrisenStamp.a(nvm.o)
 .comment       0x00000888       0x2a contiki-OrisenStamp.a(uart1.o)
 .comment       0x000008b2       0x2a contiki-OrisenStamp.a(uart2.o)
 .comment       0x000008dc       0x2a contiki-OrisenStamp.a(default_lowleve)
 .comment       0x00000906       0x2a contiki-OrisenStamp.a(isr.o)
 .comment       0x00000930       0x2a contiki-OrisenStamp.a(unicast.o)
 .comment       0x0000095a       0x2a contiki-OrisenStamp.a(frame802154.o)
 .comment       0x00000984       0x2a contiki-OrisenStamp.a(debug-uart.o)
 .comment       0x000009ae       0x2a contiki-OrisenStamp.a(leds-arch.o)

.debug
 *(.debug)

.line
 *(.line)

.debug_srcinfo
 *(.debug_srcinfo)

.debug_sfnames
 *(.debug_sfnames)

.debug_aranges  0x00000000     0x12c0
 *(.debug_aranges)
 .debug_aranges
                0x00000000       0x40 syncSensor.co
 .debug_aranges
                0x00000040       0x70 obj_OrisenStamp/contiki-stamp-main.o
 .debug_aranges
                0x000000b0       0x30 contiki-OrisenStamp.a(rimeaddr.o)
 .debug_aranges
                0x000000e0       0x48 contiki-OrisenStamp.a(rime.o)
 .debug_aranges
                0x00000128       0x70 contiki-OrisenStamp.a(announcement.o)
 .debug_aranges
                0x00000198       0x60 contiki-OrisenStamp.a(broadcast-annou)
 .debug_aranges
                0x000001f8       0x40 contiki-OrisenStamp.a(broadcast.o)
 .debug_aranges
                0x00000238       0x40 contiki-OrisenStamp.a(abc.o)
 .debug_aranges
                0x00000278      0x100 contiki-OrisenStamp.a(collect.o)
 .debug_aranges
                0x00000378       0xb8 contiki-OrisenStamp.a(collect-neighbo)
 .debug_aranges
                0x00000430       0x48 contiki-OrisenStamp.a(collect-link-es)
 .debug_aranges
                0x00000478       0x40 contiki-OrisenStamp.a(chameleon.o)
 .debug_aranges
                0x000004b8       0x40 contiki-OrisenStamp.a(channel.o)
 .debug_aranges
                0x000004f8       0x50 contiki-OrisenStamp.a(chameleon-bitop)
 .debug_aranges
                0x00000548       0x58 contiki-OrisenStamp.a(nullrdc.o)
 .debug_aranges
                0x000005a0       0x20 contiki-OrisenStamp.a(mac.o)
 .debug_aranges
                0x000005c0       0x40 contiki-OrisenStamp.a(framer-802154.o)
 .debug_aranges
                0x00000600       0x70 contiki-OrisenStamp.a(csma.o)
 .debug_aranges
                0x00000670       0x80 contiki-OrisenStamp.a(process.o)
 .debug_aranges
                0x000006f0       0x28 contiki-OrisenStamp.a(autostart.o)
 .debug_aranges
                0x00000718       0x30 contiki-OrisenStamp.a(serial-line.o)
 .debug_aranges
                0x00000748       0x38 contiki-OrisenStamp.a(memb.o)
 .debug_aranges
                0x00000780       0x40 contiki-OrisenStamp.a(timer.o)
 .debug_aranges
                0x000007c0       0x78 contiki-OrisenStamp.a(list.o)
 .debug_aranges
                0x00000838       0x88 contiki-OrisenStamp.a(etimer.o)
 .debug_aranges
                0x000008c0       0x50 contiki-OrisenStamp.a(ctimer.o)
 .debug_aranges
                0x00000910       0x28 contiki-OrisenStamp.a(random.o)
 .debug_aranges
                0x00000938       0x40 contiki-OrisenStamp.a(ringbuf.o)
 .debug_aranges
                0x00000978       0xc0 contiki-OrisenStamp.a(packetbuf.o)
 .debug_aranges
                0x00000a38       0x68 contiki-OrisenStamp.a(queuebuf.o)
 .debug_aranges
                0x00000aa0       0x58 contiki-OrisenStamp.a(packetqueue.o)
 .debug_aranges
                0x00000af8       0x60 contiki-OrisenStamp.a(clock.o)
 .debug_aranges
                0x00000b58       0x38 contiki-OrisenStamp.a(button-sensor.o)
 .debug_aranges
                0x00000b90       0x48 contiki-OrisenStamp.a(sensors.o)
 .debug_aranges
                0x00000bd8       0x90 contiki-OrisenStamp.a(RTC.o)
 .debug_aranges
                0x00000c68       0x48 contiki-OrisenStamp.a(kbi_events.o)
 .debug_aranges
                0x00000cb0       0x40 contiki-OrisenStamp.a(io-pins.o)
 .debug_aranges
                0x00000cf0       0x30 contiki-OrisenStamp.a(contiki-crm.o)
 .debug_aranges
                0x00000d20       0x80 contiki-OrisenStamp.a(contiki-maca.o)
 .debug_aranges
                0x00000da0       0x38 contiki-OrisenStamp.a(contiki-misc.o)
 .debug_aranges
                0x00000dd8       0x58 contiki-OrisenStamp.a(leds.o)
 .debug_aranges
                0x00000e30       0x20 contiki-OrisenStamp.a(contiki-uart.o)
 .debug_aranges
                0x00000e50       0x28 contiki-OrisenStamp.a(dbg-printf.o)
 .debug_aranges
                0x00000e78       0x28 contiki-OrisenStamp.a(dbg-sprintf.o)
 .debug_aranges
                0x00000ea0       0x40 contiki-OrisenStamp.a(strformat.o)
 .debug_aranges
                0x00000ee0       0x38 contiki-OrisenStamp.a(adc.o)
 .debug_aranges
                0x00000f18       0x68 contiki-OrisenStamp.a(gpio.o)
 .debug_aranges
                0x00000f80       0x50 contiki-OrisenStamp.a(gpio-util.o)
 .debug_aranges
                0x00000fd0       0x58 contiki-OrisenStamp.a(i2c.o)
 .debug_aranges
                0x00001028      0x110 contiki-OrisenStamp.a(maca.o)
 .debug_aranges
                0x00001138       0x30 contiki-OrisenStamp.a(uart1.o)
 .debug_aranges
                0x00001168       0x30 contiki-OrisenStamp.a(uart2.o)
 .debug_aranges
                0x00001198       0x30 contiki-OrisenStamp.a(default_lowleve)
 .debug_aranges
                0x000011c8       0x28 contiki-OrisenStamp.a(isr.o)
 .debug_aranges
                0x000011f0       0x40 contiki-OrisenStamp.a(unicast.o)
 .debug_aranges
                0x00001230       0x40 contiki-OrisenStamp.a(frame802154.o)
 .debug_aranges
                0x00001270       0x20 contiki-OrisenStamp.a(debug-uart.o)
 .debug_aranges
                0x00001290       0x30 contiki-OrisenStamp.a(leds-arch.o)

.debug_pubnames
                0x00000000     0x23ac
 *(.debug_pubnames)
 .debug_pubnames
                0x00000000       0x98 syncSensor.co
 .debug_pubnames
                0x00000098      0x105 obj_OrisenStamp/contiki-stamp-main.o
 .debug_pubnames
                0x0000019d       0x79 contiki-OrisenStamp.a(rimeaddr.o)
 .debug_pubnames
                0x00000216       0x5f contiki-OrisenStamp.a(rime.o)
 .debug_pubnames
                0x00000275       0x20 contiki-OrisenStamp.a(rimestats.o)
 .debug_pubnames
                0x00000295      0x144 contiki-OrisenStamp.a(announcement.o)
 .debug_pubnames
                0x000003d9       0x7d contiki-OrisenStamp.a(broadcast-annou)
 .debug_pubnames
                0x00000456       0x4c contiki-OrisenStamp.a(broadcast.o)
 .debug_pubnames
                0x000004a2       0x55 contiki-OrisenStamp.a(abc.o)
 .debug_pubnames
                0x000004f7       0xce contiki-OrisenStamp.a(collect.o)
 .debug_pubnames
                0x000005c5      0x261 contiki-OrisenStamp.a(collect-neighbo)
 .debug_pubnames
                0x00000826       0xe3 contiki-OrisenStamp.a(collect-link-es)
 .debug_pubnames
                0x00000909       0x64 contiki-OrisenStamp.a(chameleon.o)
 .debug_pubnames
                0x0000096d       0x74 contiki-OrisenStamp.a(channel.o)
 .debug_pubnames
                0x000009e1       0x6b contiki-OrisenStamp.a(chameleon-bitop)
 .debug_pubnames
                0x00000a4c       0x25 contiki-OrisenStamp.a(nullrdc.o)
 .debug_pubnames
                0x00000a71       0x2d contiki-OrisenStamp.a(mac.o)
 .debug_pubnames
                0x00000a9e       0x24 contiki-OrisenStamp.a(framer-802154.o)
 .debug_pubnames
                0x00000ac2       0x22 contiki-OrisenStamp.a(csma.o)
 .debug_pubnames
                0x00000ae4      0x10d contiki-OrisenStamp.a(process.o)
 .debug_pubnames
                0x00000bf1       0x39 contiki-OrisenStamp.a(autostart.o)
 .debug_pubnames
                0x00000c2a       0x78 contiki-OrisenStamp.a(serial-line.o)
 .debug_pubnames
                0x00000ca2       0x4d contiki-OrisenStamp.a(memb.o)
 .debug_pubnames
                0x00000cef       0x68 contiki-OrisenStamp.a(timer.o)
 .debug_pubnames
                0x00000d57       0xc3 contiki-OrisenStamp.a(list.o)
 .debug_pubnames
                0x00000e1a      0x109 contiki-OrisenStamp.a(etimer.o)
 .debug_pubnames
                0x00000f23       0x8b contiki-OrisenStamp.a(ctimer.o)
 .debug_pubnames
                0x00000fae       0x32 contiki-OrisenStamp.a(random.o)
 .debug_pubnames
                0x00000fe0       0x69 contiki-OrisenStamp.a(ringbuf.o)
 .debug_pubnames
                0x00001049      0x22c contiki-OrisenStamp.a(packetbuf.o)
 .debug_pubnames
                0x00001275       0xff contiki-OrisenStamp.a(queuebuf.o)
 .debug_pubnames
                0x00001374       0xb8 contiki-OrisenStamp.a(packetqueue.o)
 .debug_pubnames
                0x0000142c       0xbb contiki-OrisenStamp.a(clock.o)
 .debug_pubnames
                0x000014e7       0x31 contiki-OrisenStamp.a(button-sensor.o)
 .debug_pubnames
                0x00001518       0x80 contiki-OrisenStamp.a(sensors.o)
 .debug_pubnames
                0x00001598      0x113 contiki-OrisenStamp.a(RTC.o)
 .debug_pubnames
                0x000016ab       0x89 contiki-OrisenStamp.a(kbi_events.o)
 .debug_pubnames
                0x00001734       0x75 contiki-OrisenStamp.a(io-pins.o)
 .debug_pubnames
                0x000017a9       0x54 contiki-OrisenStamp.a(contiki-crm.o)
 .debug_pubnames
                0x000017fd      0x167 contiki-OrisenStamp.a(contiki-maca.o)
 .debug_pubnames
                0x00001964       0x39 contiki-OrisenStamp.a(contiki-misc.o)
 .debug_pubnames
                0x0000199d       0x75 contiki-OrisenStamp.a(leds.o)
 .debug_pubnames
                0x00001a12       0x3e contiki-OrisenStamp.a(contiki-uart.o)
 .debug_pubnames
                0x00001a50       0x1d contiki-OrisenStamp.a(dbg-printf.o)
 .debug_pubnames
                0x00001a6d       0x1e contiki-OrisenStamp.a(dbg-sprintf.o)
 .debug_pubnames
                0x00001a8b       0x32 contiki-OrisenStamp.a(strformat.o)
 .debug_pubnames
                0x00001abd       0x5a contiki-OrisenStamp.a(adc.o)
 .debug_pubnames
                0x00001b17       0xce contiki-OrisenStamp.a(gpio.o)
 .debug_pubnames
                0x00001be5       0x8e contiki-OrisenStamp.a(gpio-util.o)
 .debug_pubnames
                0x00001c73       0xa1 contiki-OrisenStamp.a(i2c.o)
 .debug_pubnames
                0x00001d14      0x389 contiki-OrisenStamp.a(maca.o)
 .debug_pubnames
                0x0000209d       0x5a contiki-OrisenStamp.a(nvm.o)
 .debug_pubnames
                0x000020f7       0x96 contiki-OrisenStamp.a(uart1.o)
 .debug_pubnames
                0x0000218d       0x96 contiki-OrisenStamp.a(uart2.o)
 .debug_pubnames
                0x00002223       0x46 contiki-OrisenStamp.a(default_lowleve)
 .debug_pubnames
                0x00002269       0x39 contiki-OrisenStamp.a(isr.o)
 .debug_pubnames
                0x000022a2       0x46 contiki-OrisenStamp.a(unicast.o)
 .debug_pubnames
                0x000022e8       0x56 contiki-OrisenStamp.a(frame802154.o)
 .debug_pubnames
                0x0000233e       0x25 contiki-OrisenStamp.a(debug-uart.o)
 .debug_pubnames
                0x00002363       0x49 contiki-OrisenStamp.a(leds-arch.o)

.debug_info     0x00000000    0xcae0d
 *(.debug_info .gnu.linkonce.wi.*)
 .debug_info    0x00000000     0x9988 syncSensor.co
 .debug_info    0x00009988     0x960e obj_OrisenStamp/contiki-stamp-main.o
 .debug_info    0x00012f96      0xbea contiki-OrisenStamp.a(rimeaddr.o)
 .debug_info    0x00013b80     0x1050 contiki-OrisenStamp.a(rime.o)
 .debug_info    0x00014bd0      0x146 contiki-OrisenStamp.a(rimestats.o)
 .debug_info    0x00014d16      0xe4a contiki-OrisenStamp.a(announcement.o)
 .debug_info    0x00015b60     0x12c0 contiki-OrisenStamp.a(broadcast-annou)
 .debug_info    0x00016e20      0xfd1 contiki-OrisenStamp.a(broadcast.o)
 .debug_info    0x00017df1      0xdee contiki-OrisenStamp.a(abc.o)
 .debug_info    0x00018bdf     0x21a1 contiki-OrisenStamp.a(collect.o)
 .debug_info    0x0001ad80     0x136e contiki-OrisenStamp.a(collect-neighbo)
 .debug_info    0x0001c0ee      0xcce contiki-OrisenStamp.a(collect-link-es)
 .debug_info    0x0001cdbc      0xe3f contiki-OrisenStamp.a(chameleon.o)
 .debug_info    0x0001dbfb      0xd45 contiki-OrisenStamp.a(channel.o)
 .debug_info    0x0001e940     0x11d9 contiki-OrisenStamp.a(chameleon-bitop)
 .debug_info    0x0001fb19     0x117d contiki-OrisenStamp.a(nullrdc.o)
 .debug_info    0x00020c96      0xb83 contiki-OrisenStamp.a(mac.o)
 .debug_info    0x00021819     0x1067 contiki-OrisenStamp.a(framer-802154.o)
 .debug_info    0x00022880     0x1613 contiki-OrisenStamp.a(csma.o)
 .debug_info    0x00023e93      0xf8a contiki-OrisenStamp.a(process.o)
 .debug_info    0x00024e1d      0xc20 contiki-OrisenStamp.a(autostart.o)
 .debug_info    0x00025a3d      0xd66 contiki-OrisenStamp.a(serial-line.o)
 .debug_info    0x000267a3      0xc1a contiki-OrisenStamp.a(memb.o)
 .debug_info    0x000273bd      0xbeb contiki-OrisenStamp.a(timer.o)
 .debug_info    0x00027fa8      0x322 contiki-OrisenStamp.a(list.o)
 .debug_info    0x000282ca      0xf1f contiki-OrisenStamp.a(etimer.o)
 .debug_info    0x000291e9      0xecb contiki-OrisenStamp.a(ctimer.o)
 .debug_info    0x0002a0b4      0xb1c contiki-OrisenStamp.a(random.o)
 .debug_info    0x0002abd0      0xc2b contiki-OrisenStamp.a(ringbuf.o)
 .debug_info    0x0002b7fb     0x102f contiki-OrisenStamp.a(packetbuf.o)
 .debug_info    0x0002c82a     0x1116 contiki-OrisenStamp.a(queuebuf.o)
 .debug_info    0x0002d940      0xfce contiki-OrisenStamp.a(packetqueue.o)
 .debug_info    0x0002e90e     0x8e92 contiki-OrisenStamp.a(clock.o)
 .debug_info    0x000377a0     0x8e0d contiki-OrisenStamp.a(button-sensor.o)
 .debug_info    0x000405ad      0xe0b contiki-OrisenStamp.a(sensors.o)
 .debug_info    0x000413b8     0x938d contiki-OrisenStamp.a(RTC.o)
 .debug_info    0x0004a745     0x8f6a contiki-OrisenStamp.a(kbi_events.o)
 .debug_info    0x000536af     0x7e00 contiki-OrisenStamp.a(io-pins.o)
 .debug_info    0x0005b4af     0x8d61 contiki-OrisenStamp.a(contiki-crm.o)
 .debug_info    0x00064210     0x9554 contiki-OrisenStamp.a(contiki-maca.o)
 .debug_info    0x0006d764     0x8da1 contiki-OrisenStamp.a(contiki-misc.o)
 .debug_info    0x00076505      0xc2b contiki-OrisenStamp.a(leds.o)
 .debug_info    0x00077130       0x85 contiki-OrisenStamp.a(contiki-uart.o)
 .debug_info    0x000771b5      0x1c2 contiki-OrisenStamp.a(dbg-printf.o)
 .debug_info    0x00077377      0x1d0 contiki-OrisenStamp.a(dbg-sprintf.o)
 .debug_info    0x00077547      0x71e contiki-OrisenStamp.a(strformat.o)
 .debug_info    0x00077c65     0x10fc contiki-OrisenStamp.a(adc.o)
 .debug_info    0x00078d61     0x8e9d contiki-OrisenStamp.a(gpio.o)
 .debug_info    0x00081bfe     0x8f00 contiki-OrisenStamp.a(gpio-util.o)
 .debug_info    0x0008aafe     0x74b6 contiki-OrisenStamp.a(i2c.o)
 .debug_info    0x00091fb4     0x9b35 contiki-OrisenStamp.a(maca.o)
 .debug_info    0x0009bae9      0x1f8 contiki-OrisenStamp.a(nvm.o)
 .debug_info    0x0009bce1     0x8e10 contiki-OrisenStamp.a(uart1.o)
 .debug_info    0x000a4af1     0x8e10 contiki-OrisenStamp.a(uart2.o)
 .debug_info    0x000ad901     0x8e4a contiki-OrisenStamp.a(default_lowleve)
 .debug_info    0x000b674b     0x8d9a contiki-OrisenStamp.a(isr.o)
 .debug_info    0x000bf4e5     0x1078 contiki-OrisenStamp.a(unicast.o)
 .debug_info    0x000c055d      0xed6 contiki-OrisenStamp.a(frame802154.o)
 .debug_info    0x000c1433      0xb22 contiki-OrisenStamp.a(debug-uart.o)
 .debug_info    0x000c1f55     0x8eb8 contiki-OrisenStamp.a(leds-arch.o)

.debug_abbrev   0x00000000     0x83aa
 *(.debug_abbrev)
 .debug_abbrev  0x00000000      0x38f syncSensor.co
 .debug_abbrev  0x0000038f      0x3ba obj_OrisenStamp/contiki-stamp-main.o
 .debug_abbrev  0x00000749      0x1b2 contiki-OrisenStamp.a(rimeaddr.o)
 .debug_abbrev  0x000008fb      0x2aa contiki-OrisenStamp.a(rime.o)
 .debug_abbrev  0x00000ba5       0x5d contiki-OrisenStamp.a(rimestats.o)
 .debug_abbrev  0x00000c02      0x227 contiki-OrisenStamp.a(announcement.o)
 .debug_abbrev  0x00000e29      0x2d6 contiki-OrisenStamp.a(broadcast-annou)
 .debug_abbrev  0x000010ff      0x27c contiki-OrisenStamp.a(broadcast.o)
 .debug_abbrev  0x0000137b      0x20a contiki-OrisenStamp.a(abc.o)
 .debug_abbrev  0x00001585      0x44d contiki-OrisenStamp.a(collect.o)
 .debug_abbrev  0x000019d2      0x30b contiki-OrisenStamp.a(collect-neighbo)
 .debug_abbrev  0x00001cdd      0x1dd contiki-OrisenStamp.a(collect-link-es)
 .debug_abbrev  0x00001eba      0x253 contiki-OrisenStamp.a(chameleon.o)
 .debug_abbrev  0x0000210d      0x218 contiki-OrisenStamp.a(channel.o)
 .debug_abbrev  0x00002325      0x342 contiki-OrisenStamp.a(chameleon-bitop)
 .debug_abbrev  0x00002667      0x318 contiki-OrisenStamp.a(nullrdc.o)
 .debug_abbrev  0x0000297f      0x162 contiki-OrisenStamp.a(mac.o)
 .debug_abbrev  0x00002ae1      0x2c5 contiki-OrisenStamp.a(framer-802154.o)
 .debug_abbrev  0x00002da6      0x434 contiki-OrisenStamp.a(csma.o)
 .debug_abbrev  0x000031da      0x31a contiki-OrisenStamp.a(process.o)
 .debug_abbrev  0x000034f4      0x197 contiki-OrisenStamp.a(autostart.o)
 .debug_abbrev  0x0000368b      0x250 contiki-OrisenStamp.a(serial-line.o)
 .debug_abbrev  0x000038db      0x18b contiki-OrisenStamp.a(memb.o)
 .debug_abbrev  0x00003a66      0x181 contiki-OrisenStamp.a(timer.o)
 .debug_abbrev  0x00003be7      0x179 contiki-OrisenStamp.a(list.o)
 .debug_abbrev  0x00003d60      0x29e contiki-OrisenStamp.a(etimer.o)
 .debug_abbrev  0x00003ffe      0x262 contiki-OrisenStamp.a(ctimer.o)
 .debug_abbrev  0x00004260      0x146 contiki-OrisenStamp.a(random.o)
 .debug_abbrev  0x000043a6      0x194 contiki-OrisenStamp.a(ringbuf.o)
 .debug_abbrev  0x0000453a      0x2e3 contiki-OrisenStamp.a(packetbuf.o)
 .debug_abbrev  0x0000481d      0x2bb contiki-OrisenStamp.a(queuebuf.o)
 .debug_abbrev  0x00004ad8      0x240 contiki-OrisenStamp.a(packetqueue.o)
 .debug_abbrev  0x00004d18      0x215 contiki-OrisenStamp.a(clock.o)
 .debug_abbrev  0x00004f2d      0x1ce contiki-OrisenStamp.a(button-sensor.o)
 .debug_abbrev  0x000050fb      0x265 contiki-OrisenStamp.a(sensors.o)
 .debug_abbrev  0x00005360      0x361 contiki-OrisenStamp.a(RTC.o)
 .debug_abbrev  0x000056c1      0x29b contiki-OrisenStamp.a(kbi_events.o)
 .debug_abbrev  0x0000595c      0x22d contiki-OrisenStamp.a(io-pins.o)
 .debug_abbrev  0x00005b89      0x1ba contiki-OrisenStamp.a(contiki-crm.o)
 .debug_abbrev  0x00005d43      0x36d contiki-OrisenStamp.a(contiki-maca.o)
 .debug_abbrev  0x000060b0      0x1ec contiki-OrisenStamp.a(contiki-misc.o)
 .debug_abbrev  0x0000629c      0x192 contiki-OrisenStamp.a(leds.o)
 .debug_abbrev  0x0000642e       0x7e contiki-OrisenStamp.a(contiki-uart.o)
 .debug_abbrev  0x000064ac      0x112 contiki-OrisenStamp.a(dbg-printf.o)
 .debug_abbrev  0x000065be      0x110 contiki-OrisenStamp.a(dbg-sprintf.o)
 .debug_abbrev  0x000066ce      0x242 contiki-OrisenStamp.a(strformat.o)
 .debug_abbrev  0x00006910      0x1bd contiki-OrisenStamp.a(adc.o)
 .debug_abbrev  0x00006acd      0x1b3 contiki-OrisenStamp.a(gpio.o)
 .debug_abbrev  0x00006c80      0x1e8 contiki-OrisenStamp.a(gpio-util.o)
 .debug_abbrev  0x00006e68      0x227 contiki-OrisenStamp.a(i2c.o)
 .debug_abbrev  0x0000708f      0x3ac contiki-OrisenStamp.a(maca.o)
 .debug_abbrev  0x0000743b       0x89 contiki-OrisenStamp.a(nvm.o)
 .debug_abbrev  0x000074c4      0x1d8 contiki-OrisenStamp.a(uart1.o)
 .debug_abbrev  0x0000769c      0x1d8 contiki-OrisenStamp.a(uart2.o)
 .debug_abbrev  0x00007874      0x1c5 contiki-OrisenStamp.a(default_lowleve)
 .debug_abbrev  0x00007a39      0x1d2 contiki-OrisenStamp.a(isr.o)
 .debug_abbrev  0x00007c0b      0x28b contiki-OrisenStamp.a(unicast.o)
 .debug_abbrev  0x00007e96      0x20e contiki-OrisenStamp.a(frame802154.o)
 .debug_abbrev  0x000080a4      0x137 contiki-OrisenStamp.a(debug-uart.o)
 .debug_abbrev  0x000081db      0x1cf contiki-OrisenStamp.a(leds-arch.o)

.debug_line     0x00000000     0x7554
 *(.debug_line)
 .debug_line    0x00000000      0x366 syncSensor.co
 .debug_line    0x00000366      0x3ef obj_OrisenStamp/contiki-stamp-main.o
 .debug_line    0x00000755      0x129 contiki-OrisenStamp.a(rimeaddr.o)
 .debug_line    0x0000087e      0x1fa contiki-OrisenStamp.a(rime.o)
 .debug_line    0x00000a78       0x4f contiki-OrisenStamp.a(rimestats.o)
 .debug_line    0x00000ac7      0x206 contiki-OrisenStamp.a(announcement.o)
 .debug_line    0x00000ccd      0x2a2 contiki-OrisenStamp.a(broadcast-annou)
 .debug_line    0x00000f6f      0x19f contiki-OrisenStamp.a(broadcast.o)
 .debug_line    0x0000110e      0x17c contiki-OrisenStamp.a(abc.o)
 .debug_line    0x0000128a      0x66a contiki-OrisenStamp.a(collect.o)
 .debug_line    0x000018f4      0x3bb contiki-OrisenStamp.a(collect-neighbo)
 .debug_line    0x00001caf      0x1a9 contiki-OrisenStamp.a(collect-link-es)
 .debug_line    0x00001e58      0x195 contiki-OrisenStamp.a(chameleon.o)
 .debug_line    0x00001fed      0x195 contiki-OrisenStamp.a(channel.o)
 .debug_line    0x00002182      0x236 contiki-OrisenStamp.a(chameleon-bitop)
 .debug_line    0x000023b8      0x22c contiki-OrisenStamp.a(nullrdc.o)
 .debug_line    0x000025e4       0xf9 contiki-OrisenStamp.a(mac.o)
 .debug_line    0x000026dd      0x1f1 contiki-OrisenStamp.a(framer-802154.o)
 .debug_line    0x000028ce      0x360 contiki-OrisenStamp.a(csma.o)
 .debug_line    0x00002c2e      0x264 contiki-OrisenStamp.a(process.o)
 .debug_line    0x00002e92      0x128 contiki-OrisenStamp.a(autostart.o)
 .debug_line    0x00002fba      0x17b contiki-OrisenStamp.a(serial-line.o)
 .debug_line    0x00003135      0x145 contiki-OrisenStamp.a(memb.o)
 .debug_line    0x0000327a      0x175 contiki-OrisenStamp.a(timer.o)
 .debug_line    0x000033ef      0x141 contiki-OrisenStamp.a(list.o)
 .debug_line    0x00003530      0x286 contiki-OrisenStamp.a(etimer.o)
 .debug_line    0x000037b6      0x228 contiki-OrisenStamp.a(ctimer.o)
 .debug_line    0x000039de       0xfc contiki-OrisenStamp.a(random.o)
 .debug_line    0x00003ada      0x151 contiki-OrisenStamp.a(ringbuf.o)
 .debug_line    0x00003c2b      0x2c9 contiki-OrisenStamp.a(packetbuf.o)
 .debug_line    0x00003ef4      0x223 contiki-OrisenStamp.a(queuebuf.o)
 .debug_line    0x00004117      0x271 contiki-OrisenStamp.a(packetqueue.o)
 .debug_line    0x00004388      0x211 contiki-OrisenStamp.a(clock.o)
 .debug_line    0x00004599      0x18e contiki-OrisenStamp.a(button-sensor.o)
 .debug_line    0x00004727      0x1af contiki-OrisenStamp.a(sensors.o)
 .debug_line    0x000048d6      0x399 contiki-OrisenStamp.a(RTC.o)
 .debug_line    0x00004c6f      0x230 contiki-OrisenStamp.a(kbi_events.o)
 .debug_line    0x00004e9f      0x23e contiki-OrisenStamp.a(io-pins.o)
 .debug_line    0x000050dd      0x162 contiki-OrisenStamp.a(contiki-crm.o)
 .debug_line    0x0000523f      0x32d contiki-OrisenStamp.a(contiki-maca.o)
 .debug_line    0x0000556c      0x1e8 contiki-OrisenStamp.a(contiki-misc.o)
 .debug_line    0x00005754      0x174 contiki-OrisenStamp.a(leds.o)
 .debug_line    0x000058c8       0x56 contiki-OrisenStamp.a(contiki-uart.o)
 .debug_line    0x0000591e       0xe9 contiki-OrisenStamp.a(dbg-printf.o)
 .debug_line    0x00005a07       0xf2 contiki-OrisenStamp.a(dbg-sprintf.o)
 .debug_line    0x00005af9      0x21d contiki-OrisenStamp.a(strformat.o)
 .debug_line    0x00005d16      0x147 contiki-OrisenStamp.a(adc.o)
 .debug_line    0x00005e5d      0x1ef contiki-OrisenStamp.a(gpio.o)
 .debug_line    0x0000604c      0x19d contiki-OrisenStamp.a(gpio-util.o)
 .debug_line    0x000061e9      0x1de contiki-OrisenStamp.a(i2c.o)
 .debug_line    0x000063c7      0x4f4 contiki-OrisenStamp.a(maca.o)
 .debug_line    0x000068bb       0xde contiki-OrisenStamp.a(nvm.o)
 .debug_line    0x00006999      0x177 contiki-OrisenStamp.a(uart1.o)
 .debug_line    0x00006b10      0x177 contiki-OrisenStamp.a(uart2.o)
 .debug_line    0x00006c87      0x197 contiki-OrisenStamp.a(default_lowleve)
 .debug_line    0x00006e1e      0x156 contiki-OrisenStamp.a(isr.o)
 .debug_line    0x00006f74      0x1aa contiki-OrisenStamp.a(unicast.o)
 .debug_line    0x0000711e      0x1e5 contiki-OrisenStamp.a(frame802154.o)
 .debug_line    0x00007303       0xf5 contiki-OrisenStamp.a(debug-uart.o)
 .debug_line    0x000073f8      0x15c contiki-OrisenStamp.a(leds-arch.o)

.debug_frame    0x00000000     0x3004
 *(.debug_frame)
 .debug_frame   0x00000000       0xa4 syncSensor.co
 .debug_frame   0x000000a4      0x10c obj_OrisenStamp/contiki-stamp-main.o
 .debug_frame   0x000001b0       0x58 contiki-OrisenStamp.a(rimeaddr.o)
 .debug_frame   0x00000208       0xac contiki-OrisenStamp.a(rime.o)
 .debug_frame   0x000002b4      0x120 contiki-OrisenStamp.a(announcement.o)
 .debug_frame   0x000003d4       0xf0 contiki-OrisenStamp.a(broadcast-annou)
 .debug_frame   0x000004c4       0x90 contiki-OrisenStamp.a(broadcast.o)
 .debug_frame   0x00000554       0x8c contiki-OrisenStamp.a(abc.o)
 .debug_frame   0x000005e0      0x310 contiki-OrisenStamp.a(collect.o)
 .debug_frame   0x000008f0      0x204 contiki-OrisenStamp.a(collect-neighbo)
 .debug_frame   0x00000af4       0x90 contiki-OrisenStamp.a(collect-link-es)
 .debug_frame   0x00000b84       0x84 contiki-OrisenStamp.a(chameleon.o)
 .debug_frame   0x00000c08       0x8c contiki-OrisenStamp.a(channel.o)
 .debug_frame   0x00000c94       0xd0 contiki-OrisenStamp.a(chameleon-bitop)
 .debug_frame   0x00000d64       0xd0 contiki-OrisenStamp.a(nullrdc.o)
 .debug_frame   0x00000e34       0x28 contiki-OrisenStamp.a(mac.o)
 .debug_frame   0x00000e5c       0x88 contiki-OrisenStamp.a(framer-802154.o)
 .debug_frame   0x00000ee4      0x128 contiki-OrisenStamp.a(csma.o)
 .debug_frame   0x0000100c      0x148 contiki-OrisenStamp.a(process.o)
 .debug_frame   0x00001154       0x40 contiki-OrisenStamp.a(autostart.o)
 .debug_frame   0x00001194       0x5c contiki-OrisenStamp.a(serial-line.o)
 .debug_frame   0x000011f0       0x78 contiki-OrisenStamp.a(memb.o)
 .debug_frame   0x00001268       0x84 contiki-OrisenStamp.a(timer.o)
 .debug_frame   0x000012ec      0x120 contiki-OrisenStamp.a(list.o)
 .debug_frame   0x0000140c      0x148 contiki-OrisenStamp.a(etimer.o)
 .debug_frame   0x00001554       0xcc contiki-OrisenStamp.a(ctimer.o)
 .debug_frame   0x00001620       0x40 contiki-OrisenStamp.a(random.o)
 .debug_frame   0x00001660       0x70 contiki-OrisenStamp.a(ringbuf.o)
 .debug_frame   0x000016d0      0x1e8 contiki-OrisenStamp.a(packetbuf.o)
 .debug_frame   0x000018b8       0xf4 contiki-OrisenStamp.a(queuebuf.o)
 .debug_frame   0x000019ac       0xe0 contiki-OrisenStamp.a(packetqueue.o)
 .debug_frame   0x00001a8c       0xd8 contiki-OrisenStamp.a(clock.o)
 .debug_frame   0x00001b64       0x70 contiki-OrisenStamp.a(button-sensor.o)
 .debug_frame   0x00001bd4       0xa4 contiki-OrisenStamp.a(sensors.o)
 .debug_frame   0x00001c78      0x1bc contiki-OrisenStamp.a(RTC.o)
 .debug_frame   0x00001e34       0xa4 contiki-OrisenStamp.a(kbi_events.o)
 .debug_frame   0x00001ed8       0x98 contiki-OrisenStamp.a(io-pins.o)
 .debug_frame   0x00001f70       0x60 contiki-OrisenStamp.a(contiki-crm.o)
 .debug_frame   0x00001fd0      0x114 contiki-OrisenStamp.a(contiki-maca.o)
 .debug_frame   0x000020e4       0x58 contiki-OrisenStamp.a(contiki-misc.o)
 .debug_frame   0x0000213c       0xd4 contiki-OrisenStamp.a(leds.o)
 .debug_frame   0x00002210       0x20 contiki-OrisenStamp.a(contiki-uart.o)
 .debug_frame   0x00002230       0x44 contiki-OrisenStamp.a(dbg-printf.o)
 .debug_frame   0x00002274       0x48 contiki-OrisenStamp.a(dbg-sprintf.o)
 .debug_frame   0x000022bc       0xa0 contiki-OrisenStamp.a(strformat.o)
 .debug_frame   0x0000235c       0x74 contiki-OrisenStamp.a(adc.o)
 .debug_frame   0x000023d0      0x128 contiki-OrisenStamp.a(gpio.o)
 .debug_frame   0x000024f8       0x90 contiki-OrisenStamp.a(gpio-util.o)
 .debug_frame   0x00002588       0xc4 contiki-OrisenStamp.a(i2c.o)
 .debug_frame   0x0000264c      0x2f4 contiki-OrisenStamp.a(maca.o)
 .debug_frame   0x00002940       0x58 contiki-OrisenStamp.a(uart1.o)
 .debug_frame   0x00002998       0x58 contiki-OrisenStamp.a(uart2.o)
 .debug_frame   0x000029f0       0x68 contiki-OrisenStamp.a(default_lowleve)
 .debug_frame   0x00002a58       0x44 contiki-OrisenStamp.a(isr.o)
 .debug_frame   0x00002a9c       0x90 contiki-OrisenStamp.a(unicast.o)
 .debug_frame   0x00002b2c       0xa4 contiki-OrisenStamp.a(frame802154.o)
 .debug_frame   0x00002bd0       0x2c contiki-OrisenStamp.a(debug-uart.o)
 .debug_frame   0x00002bfc       0x58 contiki-OrisenStamp.a(leds-arch.o)
 .debug_frame   0x00002c54       0x20 /home/user/CodeSourcery/Sourcery_G++_Lite/bin/../lib/gcc/arm-none-eabi/4.3.2/libgcc.a(_udivsi3.o)
 .debug_frame   0x00002c74       0x20 /home/user/CodeSourcery/Sourcery_G++_Lite/bin/../lib/gcc/arm-none-eabi/4.3.2/libgcc.a(_divsi3.o)
 .debug_frame   0x00002c94       0x58 /home/user/CodeSourcery/Sourcery_G++_Lite/bin/../lib/gcc/arm-none-eabi/4.3.2/libgcc.a(bpabi.o)
 .debug_frame   0x00002cec       0x38 /home/user/CodeSourcery/Sourcery_G++_Lite/bin/../lib/gcc/arm-none-eabi/4.3.2/libgcc.a(_divdi3.o)
 .debug_frame   0x00002d24       0x38 /home/user/CodeSourcery/Sourcery_G++_Lite/bin/../lib/gcc/arm-none-eabi/4.3.2/libgcc.a(_udivdi3.o)
 .debug_frame   0x00002d5c       0x40 /home/user/CodeSourcery/Sourcery_G++_Lite/bin/../lib/gcc/arm-none-eabi/4.3.2/../../../../arm-none-eabi/lib/libc.a(lib_a-malloc.o)
 .debug_frame   0x00002d9c       0x38 /home/user/CodeSourcery/Sourcery_G++_Lite/bin/../lib/gcc/arm-none-eabi/4.3.2/../../../../arm-none-eabi/lib/libc.a(lib_a-mallocr.o)
 .debug_frame   0x00002dd4       0x2c /home/user/CodeSourcery/Sourcery_G++_Lite/bin/../lib/gcc/arm-none-eabi/4.3.2/../../../../arm-none-eabi/lib/libc.a(lib_a-memcmp.o)
 .debug_frame   0x00002e00       0x2c /home/user/CodeSourcery/Sourcery_G++_Lite/bin/../lib/gcc/arm-none-eabi/4.3.2/../../../../arm-none-eabi/lib/libc.a(lib_a-memcpy.o)
 .debug_frame   0x00002e2c       0x28 /home/user/CodeSourcery/Sourcery_G++_Lite/bin/../lib/gcc/arm-none-eabi/4.3.2/../../../../arm-none-eabi/lib/libc.a(lib_a-memset.o)
 .debug_frame   0x00002e54       0x30 /home/user/CodeSourcery/Sourcery_G++_Lite/bin/../lib/gcc/arm-none-eabi/4.3.2/../../../../arm-none-eabi/lib/libc.a(lib_a-mlock.o)
 .debug_frame   0x00002e84       0x2c /home/user/CodeSourcery/Sourcery_G++_Lite/bin/../lib/gcc/arm-none-eabi/4.3.2/../../../../arm-none-eabi/lib/libc.a(lib_a-sbrkr.o)
 .debug_frame   0x00002eb0       0x28 /home/user/CodeSourcery/Sourcery_G++_Lite/bin/../lib/gcc/arm-none-eabi/4.3.2/../../../../arm-none-eabi/lib/libc.a(lib_a-strcat.o)
 .debug_frame   0x00002ed8       0x28 /home/user/CodeSourcery/Sourcery_G++_Lite/bin/../lib/gcc/arm-none-eabi/4.3.2/../../../../arm-none-eabi/lib/libc.a(lib_a-strcpy.o)
 .debug_frame   0x00002f00       0x20 /home/user/CodeSourcery/Sourcery_G++_Lite/bin/../lib/gcc/arm-none-eabi/4.3.2/../../../../arm-none-eabi/lib/libc.a(lib_a-strlen.o)
 .debug_frame   0x00002f20       0x2c /home/user/CodeSourcery/Sourcery_G++_Lite/bin/../lib/gcc/arm-none-eabi/4.3.2/../../../../arm-none-eabi/lib/libc.a(lib_a-strncmp.o)
 .debug_frame   0x00002f4c       0x50 /home/user/CodeSourcery/Sourcery_G++_Lite/bin/../lib/gcc/arm-none-eabi/4.3.2/../../../../arm-none-eabi/lib/libc.a(lib_a-freer.o)
 .debug_frame   0x00002f9c       0x68 /home/user/CodeSourcery/Sourcery_G++_Lite/bin/../lib/gcc/arm-none-eabi/4.3.2/../../../../arm-none-eabi/lib/libc.a(lib_a-reent.o)

.debug_str      0x00000000     0x7a34
 *(.debug_str)
 .debug_str     0x00000000     0x38d4 syncSensor.co
                               0x3e69 (size before relaxing)
 .debug_str     0x000038d4      0x3eb obj_OrisenStamp/contiki-stamp-main.o
                               0x3e3c (size before relaxing)
 .debug_str     0x00003cbf       0x62 contiki-OrisenStamp.a(rimeaddr.o)
                                0x710 (size before relaxing)
 .debug_str     0x00003d21      0x171 contiki-OrisenStamp.a(rime.o)
                                0x933 (size before relaxing)
 .debug_str     0x00003e92       0x55 contiki-OrisenStamp.a(rimestats.o)
                                0x106 (size before relaxing)
 .debug_str     0x00003ee7      0x17d contiki-OrisenStamp.a(announcement.o)
                                0x89b (size before relaxing)
 .debug_str     0x00004064      0x181 contiki-OrisenStamp.a(broadcast-annou)
                                0x9f3 (size before relaxing)
 .debug_str     0x000041e5      0x34e contiki-OrisenStamp.a(broadcast.o)
                                0xaf7 (size before relaxing)
 .debug_str     0x00004533       0x49 contiki-OrisenStamp.a(abc.o)
                                0x7bc (size before relaxing)
 .debug_str     0x0000457c      0x3f0 contiki-OrisenStamp.a(collect.o)
                               0x11d3 (size before relaxing)
 .debug_str     0x0000496c      0x2b3 contiki-OrisenStamp.a(collect-neighbo)
                                0xae3 (size before relaxing)
 .debug_str     0x00004c1f       0xcf contiki-OrisenStamp.a(collect-link-es)
                                0x7f2 (size before relaxing)
 .debug_str     0x00004cee       0x84 contiki-OrisenStamp.a(chameleon.o)
                                0xa9f (size before relaxing)
 .debug_str     0x00004d72       0x8b contiki-OrisenStamp.a(channel.o)
                                0x7c1 (size before relaxing)
 .debug_str     0x00004dfd       0xbb contiki-OrisenStamp.a(chameleon-bitop)
                                0xb36 (size before relaxing)
 .debug_str     0x00004eb8       0xa9 contiki-OrisenStamp.a(nullrdc.o)
                                0xbed (size before relaxing)
 .debug_str     0x00004f61       0x30 contiki-OrisenStamp.a(mac.o)
                                0x725 (size before relaxing)
 .debug_str     0x00004f91      0x19e contiki-OrisenStamp.a(framer-802154.o)
                                0xbe1 (size before relaxing)
 .debug_str     0x0000512f      0x1ea contiki-OrisenStamp.a(csma.o)
                                0xdbe (size before relaxing)
 .debug_str     0x00005319      0x178 contiki-OrisenStamp.a(process.o)
                                0x858 (size before relaxing)
 .debug_str     0x00005491       0x3a contiki-OrisenStamp.a(autostart.o)
                                0x710 (size before relaxing)
 .debug_str     0x000054cb       0xb4 contiki-OrisenStamp.a(serial-line.o)
                                0x7cf (size before relaxing)
 .debug_str     0x0000557f       0x46 contiki-OrisenStamp.a(memb.o)
                                0x6d5 (size before relaxing)
 .debug_str     0x000055c5       0x27 contiki-OrisenStamp.a(timer.o)
                                0x6fa (size before relaxing)
 .debug_str     0x000055ec       0x93 contiki-OrisenStamp.a(list.o)
                                0x104 (size before relaxing)
 .debug_str     0x0000567f      0x133 contiki-OrisenStamp.a(etimer.o)
                                0x865 (size before relaxing)
 .debug_str     0x000057b2       0xad contiki-OrisenStamp.a(ctimer.o)
                                0x7f9 (size before relaxing)
 .debug_str     0x0000585f       0x35 contiki-OrisenStamp.a(random.o)
                                0x6b4 (size before relaxing)
 .debug_str     0x00005894       0x5c contiki-OrisenStamp.a(ringbuf.o)
                                0x70d (size before relaxing)
 .debug_str     0x000058f0      0x1df contiki-OrisenStamp.a(packetbuf.o)
                                0xbd6 (size before relaxing)
 .debug_str     0x00005acf      0x18a contiki-OrisenStamp.a(queuebuf.o)
                                0xba4 (size before relaxing)
 .debug_str     0x00005c59       0xc5 contiki-OrisenStamp.a(packetqueue.o)
                                0x880 (size before relaxing)
 .debug_str     0x00005d1e       0xbc contiki-OrisenStamp.a(clock.o)
                               0x3a18 (size before relaxing)
 .debug_str     0x00005dda       0x36 contiki-OrisenStamp.a(button-sensor.o)
                               0x391d (size before relaxing)
 .debug_str     0x00005e10       0x94 contiki-OrisenStamp.a(sensors.o)
                                0x7e4 (size before relaxing)
 .debug_str     0x00005ea4      0x1f9 contiki-OrisenStamp.a(RTC.o)
                               0x3b49 (size before relaxing)
 .debug_str     0x0000609d      0x122 contiki-OrisenStamp.a(kbi_events.o)
                               0x3a65 (size before relaxing)
 .debug_str     0x000061bf      0x149 contiki-OrisenStamp.a(io-pins.o)
                               0x3548 (size before relaxing)
 .debug_str     0x00006308       0x61 contiki-OrisenStamp.a(contiki-crm.o)
                               0x3916 (size before relaxing)
 .debug_str     0x00006369      0x1d9 contiki-OrisenStamp.a(contiki-maca.o)
                               0x3f93 (size before relaxing)
 .debug_str     0x00006542       0x64 contiki-OrisenStamp.a(contiki-misc.o)
                               0x3921 (size before relaxing)
 .debug_str     0x000065a6       0x6c contiki-OrisenStamp.a(leds.o)
                                0x6fa (size before relaxing)
 .debug_str     0x00006612       0x33 contiki-OrisenStamp.a(contiki-uart.o)
                                 0x9c (size before relaxing)
 .debug_str     0x00006645       0x9c contiki-OrisenStamp.a(dbg-printf.o)
                                0x18b (size before relaxing)
 .debug_str     0x000066e1       0x4f contiki-OrisenStamp.a(dbg-sprintf.o)
                                0x19f (size before relaxing)
 .debug_str     0x00006730      0x120 contiki-OrisenStamp.a(strformat.o)
                                0x246 (size before relaxing)
 .debug_str     0x00006850       0x44 contiki-OrisenStamp.a(adc.o)
                                0x927 (size before relaxing)
 .debug_str     0x00006894       0xc0 contiki-OrisenStamp.a(gpio.o)
                               0x396d (size before relaxing)
 .debug_str     0x00006954       0xa4 contiki-OrisenStamp.a(gpio-util.o)
                               0x395f (size before relaxing)
 .debug_str     0x000069f8       0xe5 contiki-OrisenStamp.a(i2c.o)
                               0x2ed5 (size before relaxing)
 .debug_str     0x00006add      0x6ff contiki-OrisenStamp.a(maca.o)
                               0x4273 (size before relaxing)
 .debug_str     0x000071dc       0x26 contiki-OrisenStamp.a(nvm.o)
                                0x2b6 (size before relaxing)
 .debug_str     0x00007202       0x88 contiki-OrisenStamp.a(uart1.o)
                               0x394e (size before relaxing)
 .debug_str     0x0000728a       0x9e contiki-OrisenStamp.a(uart2.o)
                               0x394e (size before relaxing)
 .debug_str     0x00007328       0x56 contiki-OrisenStamp.a(default_lowleve)
                               0x39f2 (size before relaxing)
 .debug_str     0x0000737e       0x45 contiki-OrisenStamp.a(isr.o)
                               0x398f (size before relaxing)
 .debug_str     0x000073c3       0x6c contiki-OrisenStamp.a(unicast.o)
                                0xb21 (size before relaxing)
 .debug_str     0x0000742f       0xca contiki-OrisenStamp.a(frame802154.o)
                                0x8ca (size before relaxing)
 .debug_str     0x000074f9       0x30 contiki-OrisenStamp.a(debug-uart.o)
                                0x6aa (size before relaxing)
 .debug_str     0x00007529      0x50b contiki-OrisenStamp.a(leds-arch.o)
                               0x3db9 (size before relaxing)

.debug_loc      0x00000000     0x8f89
 *(.debug_loc)
 .debug_loc     0x00000000      0x413 syncSensor.co
 .debug_loc     0x00000413      0x1da obj_OrisenStamp/contiki-stamp-main.o
 .debug_loc     0x000005ed       0xc2 contiki-OrisenStamp.a(rimeaddr.o)
 .debug_loc     0x000006af      0x1f4 contiki-OrisenStamp.a(rime.o)
 .debug_loc     0x000008a3      0x2f6 contiki-OrisenStamp.a(announcement.o)
 .debug_loc     0x00000b99      0x2c2 contiki-OrisenStamp.a(broadcast-annou)
 .debug_loc     0x00000e5b      0x1aa contiki-OrisenStamp.a(broadcast.o)
 .debug_loc     0x00001005      0x188 contiki-OrisenStamp.a(abc.o)
 .debug_loc     0x0000118d      0xcaf contiki-OrisenStamp.a(collect.o)
 .debug_loc     0x00001e3c      0x6f2 contiki-OrisenStamp.a(collect-neighbo)
 .debug_loc     0x0000252e       0xfc contiki-OrisenStamp.a(collect-link-es)
 .debug_loc     0x0000262a       0xfc contiki-OrisenStamp.a(chameleon.o)
 .debug_loc     0x00002726      0x18b contiki-OrisenStamp.a(channel.o)
 .debug_loc     0x000028b1      0x53c contiki-OrisenStamp.a(chameleon-bitop)
 .debug_loc     0x00002ded      0x1cb contiki-OrisenStamp.a(nullrdc.o)
 .debug_loc     0x00002fb8       0xb8 contiki-OrisenStamp.a(mac.o)
 .debug_loc     0x00003070       0xec contiki-OrisenStamp.a(framer-802154.o)
 .debug_loc     0x0000315c      0x3d9 contiki-OrisenStamp.a(csma.o)
 .debug_loc     0x00003535      0x3c7 contiki-OrisenStamp.a(process.o)
 .debug_loc     0x000038fc       0x7a contiki-OrisenStamp.a(autostart.o)
 .debug_loc     0x00003976      0x177 contiki-OrisenStamp.a(serial-line.o)
 .debug_loc     0x00003aed      0x16c contiki-OrisenStamp.a(memb.o)
 .debug_loc     0x00003c59       0xfc contiki-OrisenStamp.a(timer.o)
 .debug_loc     0x00003d55      0x328 contiki-OrisenStamp.a(list.o)
 .debug_loc     0x0000407d      0x3e9 contiki-OrisenStamp.a(etimer.o)
 .debug_loc     0x00004466      0x303 contiki-OrisenStamp.a(ctimer.o)
 .debug_loc     0x00004769       0x51 contiki-OrisenStamp.a(random.o)
 .debug_loc     0x000047ba       0xdc contiki-OrisenStamp.a(ringbuf.o)
 .debug_loc     0x00004896      0x31d contiki-OrisenStamp.a(packetbuf.o)
 .debug_loc     0x00004bb3      0x214 contiki-OrisenStamp.a(queuebuf.o)
 .debug_loc     0x00004dc7      0x255 contiki-OrisenStamp.a(packetqueue.o)
 .debug_loc     0x0000501c      0x1ab contiki-OrisenStamp.a(clock.o)
 .debug_loc     0x000051c7       0xf4 contiki-OrisenStamp.a(button-sensor.o)
 .debug_loc     0x000052bb      0x212 contiki-OrisenStamp.a(sensors.o)
 .debug_loc     0x000054cd      0x562 contiki-OrisenStamp.a(RTC.o)
 .debug_loc     0x00005a2f      0x1ab contiki-OrisenStamp.a(kbi_events.o)
 .debug_loc     0x00005bda      0x43a contiki-OrisenStamp.a(io-pins.o)
 .debug_loc     0x00006014       0x70 contiki-OrisenStamp.a(contiki-crm.o)
 .debug_loc     0x00006084      0x29d contiki-OrisenStamp.a(contiki-maca.o)
 .debug_loc     0x00006321       0x50 contiki-OrisenStamp.a(contiki-misc.o)
 .debug_loc     0x00006371      0x16a contiki-OrisenStamp.a(leds.o)
 .debug_loc     0x000064db       0xd0 contiki-OrisenStamp.a(dbg-printf.o)
 .debug_loc     0x000065ab       0xe4 contiki-OrisenStamp.a(dbg-sprintf.o)
 .debug_loc     0x0000668f      0xcf1 contiki-OrisenStamp.a(strformat.o)
 .debug_loc     0x00007380       0x9a contiki-OrisenStamp.a(adc.o)
 .debug_loc     0x0000741a      0x1d2 contiki-OrisenStamp.a(gpio.o)
 .debug_loc     0x000075ec      0x161 contiki-OrisenStamp.a(gpio-util.o)
 .debug_loc     0x0000774d      0x16c contiki-OrisenStamp.a(i2c.o)
 .debug_loc     0x000078b9      0xe0b contiki-OrisenStamp.a(maca.o)
 .debug_loc     0x000086c4       0xd5 contiki-OrisenStamp.a(uart1.o)
 .debug_loc     0x00008799       0xd5 contiki-OrisenStamp.a(uart2.o)
 .debug_loc     0x0000886e      0x1a6 contiki-OrisenStamp.a(default_lowleve)
 .debug_loc     0x00008a14       0x1f contiki-OrisenStamp.a(isr.o)
 .debug_loc     0x00008a33      0x1cf contiki-OrisenStamp.a(unicast.o)
 .debug_loc     0x00008c02      0x29e contiki-OrisenStamp.a(frame802154.o)
 .debug_loc     0x00008ea0       0x79 contiki-OrisenStamp.a(debug-uart.o)
 .debug_loc     0x00008f19       0x70 contiki-OrisenStamp.a(leds-arch.o)

.debug_macinfo
 *(.debug_macinfo)

.debug_weaknames
 *(.debug_weaknames)

.debug_funcnames
 *(.debug_funcnames)

.debug_typenames
 *(.debug_typenames)

.debug_varnames
 *(.debug_varnames)

.debug_pubtypes
 *(.debug_pubtypes)

.debug_ranges   0x00000000     0x1348
 *(.debug_ranges)
 .debug_ranges  0x00000000       0xa8 syncSensor.co
 .debug_ranges  0x000000a8       0x68 obj_OrisenStamp/contiki-stamp-main.o
 .debug_ranges  0x00000110       0x28 contiki-OrisenStamp.a(rimeaddr.o)
 .debug_ranges  0x00000138       0x40 contiki-OrisenStamp.a(rime.o)
 .debug_ranges  0x00000178       0x68 contiki-OrisenStamp.a(announcement.o)
 .debug_ranges  0x000001e0       0x58 contiki-OrisenStamp.a(broadcast-annou)
 .debug_ranges  0x00000238       0x38 contiki-OrisenStamp.a(broadcast.o)
 .debug_ranges  0x00000270       0x38 contiki-OrisenStamp.a(abc.o)
 .debug_ranges  0x000002a8      0x1a0 contiki-OrisenStamp.a(collect.o)
 .debug_ranges  0x00000448       0xb0 contiki-OrisenStamp.a(collect-neighbo)
 .debug_ranges  0x000004f8       0x40 contiki-OrisenStamp.a(collect-link-es)
 .debug_ranges  0x00000538       0x38 contiki-OrisenStamp.a(chameleon.o)
 .debug_ranges  0x00000570       0x38 contiki-OrisenStamp.a(channel.o)
 .debug_ranges  0x000005a8       0x48 contiki-OrisenStamp.a(chameleon-bitop)
 .debug_ranges  0x000005f0       0x68 contiki-OrisenStamp.a(nullrdc.o)
 .debug_ranges  0x00000658       0x18 contiki-OrisenStamp.a(mac.o)
 .debug_ranges  0x00000670       0x38 contiki-OrisenStamp.a(framer-802154.o)
 .debug_ranges  0x000006a8       0xc8 contiki-OrisenStamp.a(csma.o)
 .debug_ranges  0x00000770       0x78 contiki-OrisenStamp.a(process.o)
 .debug_ranges  0x000007e8       0x20 contiki-OrisenStamp.a(autostart.o)
 .debug_ranges  0x00000808       0x40 contiki-OrisenStamp.a(serial-line.o)
 .debug_ranges  0x00000848       0x30 contiki-OrisenStamp.a(memb.o)
 .debug_ranges  0x00000878       0x38 contiki-OrisenStamp.a(timer.o)
 .debug_ranges  0x000008b0       0x70 contiki-OrisenStamp.a(list.o)
 .debug_ranges  0x00000920       0x80 contiki-OrisenStamp.a(etimer.o)
 .debug_ranges  0x000009a0       0x60 contiki-OrisenStamp.a(ctimer.o)
 .debug_ranges  0x00000a00       0x20 contiki-OrisenStamp.a(random.o)
 .debug_ranges  0x00000a20       0x38 contiki-OrisenStamp.a(ringbuf.o)
 .debug_ranges  0x00000a58       0xb8 contiki-OrisenStamp.a(packetbuf.o)
 .debug_ranges  0x00000b10       0x60 contiki-OrisenStamp.a(queuebuf.o)
 .debug_ranges  0x00000b70       0x50 contiki-OrisenStamp.a(packetqueue.o)
 .debug_ranges  0x00000bc0       0x58 contiki-OrisenStamp.a(clock.o)
 .debug_ranges  0x00000c18       0x30 contiki-OrisenStamp.a(button-sensor.o)
 .debug_ranges  0x00000c48       0x58 contiki-OrisenStamp.a(sensors.o)
 .debug_ranges  0x00000ca0       0xb8 contiki-OrisenStamp.a(RTC.o)
 .debug_ranges  0x00000d58       0x58 contiki-OrisenStamp.a(kbi_events.o)
 .debug_ranges  0x00000db0       0x58 contiki-OrisenStamp.a(io-pins.o)
 .debug_ranges  0x00000e08       0x28 contiki-OrisenStamp.a(contiki-crm.o)
 .debug_ranges  0x00000e30       0x90 contiki-OrisenStamp.a(contiki-maca.o)
 .debug_ranges  0x00000ec0       0x30 contiki-OrisenStamp.a(contiki-misc.o)
 .debug_ranges  0x00000ef0       0x50 contiki-OrisenStamp.a(leds.o)
 .debug_ranges  0x00000f40       0x18 contiki-OrisenStamp.a(contiki-uart.o)
 .debug_ranges  0x00000f58       0x20 contiki-OrisenStamp.a(dbg-printf.o)
 .debug_ranges  0x00000f78       0x20 contiki-OrisenStamp.a(dbg-sprintf.o)
 .debug_ranges  0x00000f98       0x38 contiki-OrisenStamp.a(strformat.o)
 .debug_ranges  0x00000fd0       0x30 contiki-OrisenStamp.a(adc.o)
 .debug_ranges  0x00001000       0x60 contiki-OrisenStamp.a(gpio.o)
 .debug_ranges  0x00001060       0x48 contiki-OrisenStamp.a(gpio-util.o)
 .debug_ranges  0x000010a8       0x50 contiki-OrisenStamp.a(i2c.o)
 .debug_ranges  0x000010f8      0x108 contiki-OrisenStamp.a(maca.o)
 .debug_ranges  0x00001200       0x28 contiki-OrisenStamp.a(uart1.o)
 .debug_ranges  0x00001228       0x28 contiki-OrisenStamp.a(uart2.o)
 .debug_ranges  0x00001250       0x28 contiki-OrisenStamp.a(default_lowleve)
 .debug_ranges  0x00001278       0x20 contiki-OrisenStamp.a(isr.o)
 .debug_ranges  0x00001298       0x38 contiki-OrisenStamp.a(unicast.o)
 .debug_ranges  0x000012d0       0x38 contiki-OrisenStamp.a(frame802154.o)
 .debug_ranges  0x00001308       0x18 contiki-OrisenStamp.a(debug-uart.o)
 .debug_ranges  0x00001320       0x28 contiki-OrisenStamp.a(leds-arch.o)

.gnu.attributes
 *(.gnu.attributes)

.note.gnu.arm.ident
 *(.note.gnu.arm.ident)

/DISCARD/
 *(.note.GNU-stack)
 *(.gnu_debuglink)
OUTPUT(syncSensor.elf elf32-littlearm)

.ARM.attributes
                0x00000000       0x32
 .ARM.attributes
                0x00000000       0x30 syncSensor.co
 .ARM.attributes
                0x00000030       0x32 obj_OrisenStamp/contiki-stamp-main.o
 .ARM.attributes
                0x00000062       0x1a obj_OrisenStamp/start.o
 .ARM.attributes
                0x0000007c       0x32 contiki-OrisenStamp.a(rimeaddr.o)
 .ARM.attributes
                0x000000ae       0x32 contiki-OrisenStamp.a(rime.o)
 .ARM.attributes
                0x000000e0       0x2e contiki-OrisenStamp.a(rimestats.o)
 .ARM.attributes
                0x0000010e       0x32 contiki-OrisenStamp.a(announcement.o)
 .ARM.attributes
                0x00000140       0x32 contiki-OrisenStamp.a(broadcast-annou)
 .ARM.attributes
                0x00000172       0x32 contiki-OrisenStamp.a(broadcast.o)
 .ARM.attributes
                0x000001a4       0x32 contiki-OrisenStamp.a(abc.o)
 .ARM.attributes
                0x000001d6       0x32 contiki-OrisenStamp.a(collect.o)
 .ARM.attributes
                0x00000208       0x32 contiki-OrisenStamp.a(collect-neighbo)
 .ARM.attributes
                0x0000023a       0x32 contiki-OrisenStamp.a(collect-link-es)
 .ARM.attributes
                0x0000026c       0x32 contiki-OrisenStamp.a(chameleon.o)
 .ARM.attributes
                0x0000029e       0x32 contiki-OrisenStamp.a(channel.o)
 .ARM.attributes
                0x000002d0       0x32 contiki-OrisenStamp.a(chameleon-bitop)
 .ARM.attributes
                0x00000302       0x30 contiki-OrisenStamp.a(nullrdc.o)
 .ARM.attributes
                0x00000332       0x32 contiki-OrisenStamp.a(mac.o)
 .ARM.attributes
                0x00000364       0x30 contiki-OrisenStamp.a(framer-802154.o)
 .ARM.attributes
                0x00000394       0x30 contiki-OrisenStamp.a(csma.o)
 .ARM.attributes
                0x000003c4       0x32 contiki-OrisenStamp.a(process.o)
 .ARM.attributes
                0x000003f6       0x32 contiki-OrisenStamp.a(autostart.o)
 .ARM.attributes
                0x00000428       0x32 contiki-OrisenStamp.a(serial-line.o)
 .ARM.attributes
                0x0000045a       0x32 contiki-OrisenStamp.a(memb.o)
 .ARM.attributes
                0x0000048c       0x32 contiki-OrisenStamp.a(timer.o)
 .ARM.attributes
                0x000004be       0x32 contiki-OrisenStamp.a(list.o)
 .ARM.attributes
                0x000004f0       0x32 contiki-OrisenStamp.a(etimer.o)
 .ARM.attributes
                0x00000522       0x32 contiki-OrisenStamp.a(ctimer.o)
 .ARM.attributes
                0x00000554       0x32 contiki-OrisenStamp.a(random.o)
 .ARM.attributes
                0x00000586       0x32 contiki-OrisenStamp.a(ringbuf.o)
 .ARM.attributes
                0x000005b8       0x32 contiki-OrisenStamp.a(packetbuf.o)
 .ARM.attributes
                0x000005ea       0x32 contiki-OrisenStamp.a(queuebuf.o)
 .ARM.attributes
                0x0000061c       0x32 contiki-OrisenStamp.a(packetqueue.o)
 .ARM.attributes
                0x0000064e       0x32 contiki-OrisenStamp.a(clock.o)
 .ARM.attributes
                0x00000680       0x32 contiki-OrisenStamp.a(button-sensor.o)
 .ARM.attributes
                0x000006b2       0x32 contiki-OrisenStamp.a(sensors.o)
 .ARM.attributes
                0x000006e4       0x32 contiki-OrisenStamp.a(RTC.o)
 .ARM.attributes
                0x00000716       0x32 contiki-OrisenStamp.a(kbi_events.o)
 .ARM.attributes
                0x00000748       0x32 contiki-OrisenStamp.a(io-pins.o)
 .ARM.attributes
                0x0000077a       0x32 contiki-OrisenStamp.a(contiki-crm.o)
 .ARM.attributes
                0x000007ac       0x32 contiki-OrisenStamp.a(contiki-maca.o)
 .ARM.attributes
                0x000007de       0x32 contiki-OrisenStamp.a(contiki-misc.o)
 .ARM.attributes
                0x00000810       0x32 contiki-OrisenStamp.a(leds.o)
 .ARM.attributes
                0x00000842       0x32 contiki-OrisenStamp.a(contiki-uart.o)
 .ARM.attributes
                0x00000874       0x32 contiki-OrisenStamp.a(dbg-printf.o)
 .ARM.attributes
                0x000008a6       0x32 contiki-OrisenStamp.a(dbg-sprintf.o)
 .ARM.attributes
                0x000008d8       0x32 contiki-OrisenStamp.a(strformat.o)
 .ARM.attributes
                0x0000090a       0x32 contiki-OrisenStamp.a(adc.o)
 .ARM.attributes
                0x0000093c       0x32 contiki-OrisenStamp.a(gpio.o)
 .ARM.attributes
                0x0000096e       0x32 contiki-OrisenStamp.a(gpio-util.o)
 .ARM.attributes
                0x000009a0       0x32 contiki-OrisenStamp.a(i2c.o)
 .ARM.attributes
                0x000009d2       0x32 contiki-OrisenStamp.a(maca.o)
 .ARM.attributes
                0x00000a04       0x2e contiki-OrisenStamp.a(nvm.o)
 .ARM.attributes
                0x00000a32       0x32 contiki-OrisenStamp.a(uart1.o)
 .ARM.attributes
                0x00000a64       0x32 contiki-OrisenStamp.a(uart2.o)
 .ARM.attributes
                0x00000a96       0x32 contiki-OrisenStamp.a(default_lowleve)
 .ARM.attributes
                0x00000ac8       0x30 contiki-OrisenStamp.a(isr.o)
 .ARM.attributes
                0x00000af8       0x32 contiki-OrisenStamp.a(unicast.o)
 .ARM.attributes
                0x00000b2a       0x32 contiki-OrisenStamp.a(frame802154.o)
 .ARM.attributes
                0x00000b5c       0x32 contiki-OrisenStamp.a(debug-uart.o)
 .ARM.attributes
                0x00000b8e       0x32 contiki-OrisenStamp.a(leds-arch.o)
 .ARM.attributes
                0x00000bc0       0x14 /home/user/CodeSourcery/Sourcery_G++_Lite/bin/../lib/gcc/arm-none-eabi/4.3.2/libgcc.a(_udivsi3.o)
 .ARM.attributes
                0x00000bd4       0x14 /home/user/CodeSourcery/Sourcery_G++_Lite/bin/../lib/gcc/arm-none-eabi/4.3.2/libgcc.a(_divsi3.o)
 .ARM.attributes
                0x00000be8       0x14 /home/user/CodeSourcery/Sourcery_G++_Lite/bin/../lib/gcc/arm-none-eabi/4.3.2/libgcc.a(_dvmd_tls.o)
 .ARM.attributes
                0x00000bfc       0x14 /home/user/CodeSourcery/Sourcery_G++_Lite/bin/../lib/gcc/arm-none-eabi/4.3.2/libgcc.a(_aeabi_uldivmod.o)
 .ARM.attributes
                0x00000c10       0x2e /home/user/CodeSourcery/Sourcery_G++_Lite/bin/../lib/gcc/arm-none-eabi/4.3.2/libgcc.a(bpabi.o)
 .ARM.attributes
                0x00000c3e       0x2e /home/user/CodeSourcery/Sourcery_G++_Lite/bin/../lib/gcc/arm-none-eabi/4.3.2/libgcc.a(_divdi3.o)
 .ARM.attributes
                0x00000c6c       0x2e /home/user/CodeSourcery/Sourcery_G++_Lite/bin/../lib/gcc/arm-none-eabi/4.3.2/libgcc.a(_udivdi3.o)
 .ARM.attributes
                0x00000c9a       0x2c /home/user/CodeSourcery/Sourcery_G++_Lite/bin/../lib/gcc/arm-none-eabi/4.3.2/libgcc.a(_clz.o)
 .ARM.attributes
                0x00000cc6       0x2e /home/user/CodeSourcery/Sourcery_G++_Lite/bin/../lib/gcc/arm-none-eabi/4.3.2/../../../../arm-none-eabi/lib/libc.a(lib_a-malloc.o)
 .ARM.attributes
                0x00000cf4       0x2e /home/user/CodeSourcery/Sourcery_G++_Lite/bin/../lib/gcc/arm-none-eabi/4.3.2/../../../../arm-none-eabi/lib/libc.a(lib_a-mallocr.o)
 .ARM.attributes
                0x00000d22       0x2e /home/user/CodeSourcery/Sourcery_G++_Lite/bin/../lib/gcc/arm-none-eabi/4.3.2/../../../../arm-none-eabi/lib/libc.a(lib_a-memcmp.o)
 .ARM.attributes
                0x00000d50       0x2e /home/user/CodeSourcery/Sourcery_G++_Lite/bin/../lib/gcc/arm-none-eabi/4.3.2/../../../../arm-none-eabi/lib/libc.a(lib_a-memcpy.o)
 .ARM.attributes
                0x00000d7e       0x2e /home/user/CodeSourcery/Sourcery_G++_Lite/bin/../lib/gcc/arm-none-eabi/4.3.2/../../../../arm-none-eabi/lib/libc.a(lib_a-memset.o)
 .ARM.attributes
                0x00000dac       0x2e /home/user/CodeSourcery/Sourcery_G++_Lite/bin/../lib/gcc/arm-none-eabi/4.3.2/../../../../arm-none-eabi/lib/libc.a(lib_a-mlock.o)
 .ARM.attributes
                0x00000dda       0x2e /home/user/CodeSourcery/Sourcery_G++_Lite/bin/../lib/gcc/arm-none-eabi/4.3.2/../../../../arm-none-eabi/lib/libc.a(lib_a-sbrkr.o)
 .ARM.attributes
                0x00000e08       0x2e /home/user/CodeSourcery/Sourcery_G++_Lite/bin/../lib/gcc/arm-none-eabi/4.3.2/../../../../arm-none-eabi/lib/libc.a(lib_a-strcat.o)
 .ARM.attributes
                0x00000e36       0x2e /home/user/CodeSourcery/Sourcery_G++_Lite/bin/../lib/gcc/arm-none-eabi/4.3.2/../../../../arm-none-eabi/lib/libc.a(lib_a-strcpy.o)
 .ARM.attributes
                0x00000e64       0x2e /home/user/CodeSourcery/Sourcery_G++_Lite/bin/../lib/gcc/arm-none-eabi/4.3.2/../../../../arm-none-eabi/lib/libc.a(lib_a-strlen.o)
 .ARM.attributes
                0x00000e92       0x2e /home/user/CodeSourcery/Sourcery_G++_Lite/bin/../lib/gcc/arm-none-eabi/4.3.2/../../../../arm-none-eabi/lib/libc.a(lib_a-strncmp.o)
 .ARM.attributes
                0x00000ec0       0x2e /home/user/CodeSourcery/Sourcery_G++_Lite/bin/../lib/gcc/arm-none-eabi/4.3.2/../../../../arm-none-eabi/lib/libc.a(lib_a-freer.o)
 .ARM.attributes
                0x00000eee       0x2c /home/user/CodeSourcery/Sourcery_G++_Lite/bin/../lib/gcc/arm-none-eabi/4.3.2/../../../../arm-none-eabi/lib/libc.a(lib_a-impure.o)
 .ARM.attributes
                0x00000f1a       0x2e /home/user/CodeSourcery/Sourcery_G++_Lite/bin/../lib/gcc/arm-none-eabi/4.3.2/../../../../arm-none-eabi/lib/libc.a(lib_a-reent.o)
